(dp0
I3
(dp1
I1
(lp2
F2.6210021294864694
aI13
asI2
(lp3
F4.636088814107237
aI13
asI3
(lp4
F4.897748644106031
aI13
asI4
(lp5
F5.182330065715126
aI13
asI5
(lp6
F5.4600244500247594
aI13
asI6
(lp7
F5.710001061749989
aI13
asI7
(lp8
F3.4088612537665073
aI13
asI8
(lp9
F3.171338977835418
aI13
asI9
(lp10
F2.9835840887715737
aI13
asI10
(lp11
F2.9906595142487014
aI13
assI4
(dp12
I1
(lp13
F2.6161405976581875
aI13
asI2
(lp14
F4.63691085042394
aI13
asI3
(lp15
F4.894876625906611
aI13
asI4
(lp16
F5.182736975288812
aI13
asI5
(lp17
F5.457223129469144
aI13
asI6
(lp18
F5.712946113500102
aI13
asI7
(lp19
F3.412349530661159
aI13
asI8
(lp20
F3.171695412769845
aI13
asI9
(lp21
F2.984849619620573
aI13
asI10
(lp22
F2.99292371218461
aI13
assI5
(dp23
I1
(lp24
F2.6142998604908443
aI13
asI2
(lp25
F4.635970488393188
aI13
asI3
(lp26
F4.897499880764978
aI13
asI4
(lp27
F5.183901707240613
aI13
asI5
(lp28
F5.457490988761896
aI13
asI6
(lp29
F5.713253152314467
aI13
asI7
(lp30
F3.405122058613453
aI13
asI8
(lp31
F3.1676343927687776
aI13
asI9
(lp32
F2.9873548539786765
aI13
asI10
(lp33
F2.994704421093227
aI13
assI6
(dp34
I1
(lp35
F2.66132106635261
aI13
asI2
(lp36
F4.698011530819564
aI13
asI3
(lp37
F4.959632187434894
aI13
asI4
(lp38
F5.2411502668683045
aI13
asI5
(lp39
F5.51381713362315
aI13
asI6
(lp40
F5.769402587619876
aI13
asI7
(lp41
F3.5936474231859403
aI13
asI8
(lp42
F3.2318105187999437
aI13
asI9
(lp43
F3.0432813721397323
aI13
asI10
(lp44
F3.054966449663677
aI13
assI7
(dp45
I1
(lp46
F2.9690827466351157
aI13
asI2
(lp47
F5.09182169574363
aI13
asI3
(lp48
F5.343473510348209
aI13
asI4
(lp49
F5.6102189568092165
aI13
asI5
(lp50
F5.872455746416438
aI13
asI6
(lp51
F6.1092095720458905
aI13
asI7
(lp52
F4.586518952350646
aI13
asI8
(lp53
F3.7352798087250303
aI13
asI9
(lp54
F3.4020101968485603
aI13
asI10
(lp55
F3.4195240005856498
aI13
assI8
(dp56
I1
(lp57
F3.7974728449660793
aI13
asI2
(lp58
F5.8222793266086805
aI13
asI3
(lp59
F6.047075615057523
aI13
asI4
(lp60
F6.288172443826258
aI13
asI5
(lp61
F6.536257588519585
aI13
asI6
(lp62
F6.744783877836582
aI13
asI7
(lp63
F5.889718639514962
aI13
asI8
(lp64
F5.018943671806269
aI13
asI9
(lp65
F4.172107412571038
aI13
asI10
(lp66
F4.0854051918065375
aI13
assI9
(dp67
I1
(lp68
F5.014796229480436
aI13
asI2
(lp69
F6.690547535712043
aI13
asI3
(lp70
F6.883131185598685
aI13
asI4
(lp71
F7.094403865366125
aI13
asI5
(lp72
F7.317243538257929
aI13
asI6
(lp73
F7.489452808405195
aI13
asI7
(lp74
F6.841809219150739
aI13
asI8
(lp75
F6.406705477644939
aI13
asI9
(lp76
F5.522214343804441
aI13
asI10
(lp77
F4.997871394985076
aI13
assI10
(dp78
I1
(lp79
F6.389848516001248
aI13
asI2
(lp80
F7.654575568725049
aI13
asI3
(lp81
F7.823989268710098
aI13
asI4
(lp82
F7.999616563229521
aI13
asI5
(lp83
F8.189640191344564
aI13
asI6
(lp84
F8.33221263841907
aI13
asI7
(lp85
F7.775990006637023
aI13
asI8
(lp86
F7.4254060283499115
aI13
asI9
(lp87
F6.971502815313911
aI13
asI10
(lp88
F6.482446310291283
aI13
assI11
(dp89
I1
(lp90
F6.841970318398969
aI13
asI2
(lp91
F8.024878896232568
aI13
asI3
(lp92
F8.179948967672393
aI13
asI4
(lp93
F8.345604227765683
aI13
asI5
(lp94
F8.51820626870217
aI13
asI6
(lp95
F8.658360995416894
aI13
asI7
(lp96
F8.004947455516934
aI13
asI8
(lp97
F7.634153140712725
aI13
asI9
(lp98
F7.244715642239565
aI13
asI10
(lp99
F7.09196175964531
aI13
assI12
(dp100
I1
(lp101
F3.7828350008856564
aI13
asI2
(lp102
F4.8462029159351765
aI13
asI3
(lp103
F4.976984892969278
aI13
asI4
(lp104
F5.117571836105385
aI13
asI5
(lp105
F5.261342120742294
aI13
asI6
(lp106
F5.3779033307168636
aI13
asI7
(lp107
F4.854098304514524
aI13
asI8
(lp108
F4.493890210144015
aI13
asI9
(lp109
F4.106860851869409
aI13
asI10
(lp110
F3.917627480772287
aI13
assI13
(dp111
I1
(lp112
F3.580703753352378
aI13
asI2
(lp113
F4.490123099775823
aI13
asI3
(lp114
F4.600319833562479
aI13
asI4
(lp115
F4.718684898511083
aI13
asI5
(lp116
F4.84036183882889
aI13
asI6
(lp117
F4.938988855648746
aI13
asI7
(lp118
F4.592005257629263
aI13
asI8
(lp119
F4.249534612778069
aI13
asI9
(lp120
F3.877121478384031
aI13
asI10
(lp121
F3.6879421033808706
aI13
assI14
(dp122
I1
(lp123
F3.3800401895273557
aI13
asI2
(lp124
F4.133310361440316
aI13
asI3
(lp125
F4.224516089659526
aI13
asI4
(lp126
F4.319526493827078
aI13
asI5
(lp127
F4.420268663835377
aI13
asI6
(lp128
F4.4989145660431
aI13
asI7
(lp129
F4.328446233374211
aI13
asI8
(lp130
F4.0050250379518415
aI13
asI9
(lp131
F3.647188649660879
aI13
asI10
(lp132
F3.4576591019214087
aI13
assI15
(dp133
I1
(lp134
F3.1801778130839207
aI13
asI2
(lp135
F3.776699914290384
aI13
asI3
(lp136
F3.8477432613664604
aI13
asI4
(lp137
F3.919966694170226
aI13
asI5
(lp138
F4.000272636227254
aI13
asI6
(lp139
F4.059014842471458
aI13
asI7
(lp140
F4.067125022091026
aI13
asI8
(lp141
F3.7616648414329346
aI13
asI9
(lp142
F3.4169000524443645
aI13
asI10
(lp143
F3.226827629175517
aI13
assI16
(dp144
I1
(lp145
F2.978187407127023
aI13
asI2
(lp146
F3.420845151630903
aI13
asI3
(lp147
F3.471218867347904
aI13
asI4
(lp148
F3.5218338750096896
aI13
asI5
(lp149
F3.581255867934571
aI13
asI6
(lp150
F3.6192667900928734
aI13
asI7
(lp151
F3.804927652204963
aI13
asI8
(lp152
F3.5185109343318155
aI13
asI9
(lp153
F3.1876503659716766
aI13
asI10
(lp154
F2.996374484403997
aI13
assI17
(dp155
I1
(lp156
F2.7357745748354345
aI13
asI2
(lp157
F2.9996972786391103
aI13
asI3
(lp158
F3.030603642511416
aI13
asI4
(lp159
F3.0618194203155027
aI13
asI5
(lp160
F3.1026823036737965
aI13
asI6
(lp161
F3.1235131852483593
aI13
asI7
(lp162
F3.3576656098205233
aI13
asI8
(lp163
F3.210442344640553
aI13
asI9
(lp164
F2.8983980237243605
aI13
asI10
(lp165
F2.7051353479311264
aI13
assI18
(dp166
I1
(lp167
F2.3478546343188156
aI13
asI2
(lp168
F2.446111236948679
aI13
asI3
(lp169
F2.462428695543671
aI13
asI4
(lp170
F2.479352981518257
aI13
asI5
(lp171
F2.50304577606154
aI13
asI6
(lp172
F2.51212497776651
aI13
asI7
(lp173
F2.6583257428375737
aI13
asI8
(lp174
F2.658501555655267
aI13
asI9
(lp175
F2.4901357122387586
aI13
asI10
(lp176
F2.292981284742373
aI13
assI19
(dp177
I1
(lp178
F1.754341128541871
aI13
asI2
(lp179
F1.756572279671524
aI13
asI3
(lp180
F1.7645546852541485
aI13
asI4
(lp181
F1.7713959560868533
aI13
asI5
(lp182
F1.7819805551248138
aI13
asI6
(lp183
F1.785372685006505
aI13
asI7
(lp184
F1.8496003369312746
aI13
asI8
(lp185
F1.8613679914180565
aI13
asI9
(lp186
F1.8481146528344108
aI13
asI10
(lp187
F1.7592063628255699
aI13
assI20
(dp188
I1
(lp189
F0.9525241980038889
aI13
asI2
(lp190
F0.9400033610870151
aI13
asI3
(lp191
F0.9416039591207899
aI13
asI4
(lp192
F0.9433625887994537
aI13
asI5
(lp193
F0.9457512904553411
aI13
asI6
(lp194
F0.9470444020028895
aI13
asI7
(lp195
F0.9629597432789556
aI13
asI8
(lp196
F0.9654751811028307
aI13
asI9
(lp197
F0.9695927975714812
aI13
asI10
(lp198
F0.9811890896384563
aI13
assS'ITERATIONS'
p199
I5000000
s.