(dp0
I3
(dp1
I1
(lp2
F2.5671119147081845
aI13
asI2
(lp3
F4.6791117126509816
aI13
asI3
(lp4
F4.8653751090428505
aI13
asI4
(lp5
F5.1183939097378017
aI13
asI5
(lp6
F5.434403396041076
aI13
asI6
(lp7
F5.6578490994267234
aI13
asI7
(lp8
F3.536584568356139
aI13
asI8
(lp9
F3.1216668141756174
aI13
asI9
(lp10
F2.9304086657637436
aI13
asI10
(lp11
F3.0448648387791244
aI13
assI4
(dp12
I1
(lp13
F2.6099458262044668
aI13
asI2
(lp14
F4.6556408612834117
aI13
asI3
(lp15
F4.8570409983903913
aI13
asI4
(lp16
F5.1179789797144988
aI13
asI5
(lp17
F5.3864521280841684
aI13
asI6
(lp18
F5.5985508462196814
aI13
asI7
(lp19
F3.556541401562809
aI13
asI8
(lp20
F3.1410526764428583
aI13
asI9
(lp21
F2.9237755226950188
aI13
asI10
(lp22
F3.0000189345992418
aI13
assI5
(dp23
I1
(lp24
F2.5379079092536325
aI13
asI2
(lp25
F4.6237453384075335
aI13
asI3
(lp26
F4.9414451295534496
aI13
asI4
(lp27
F5.1236410179597858
aI13
asI5
(lp28
F5.4243775725933716
aI13
asI6
(lp29
F5.5962048784973746
aI13
asI7
(lp30
F3.4916453088812669
aI13
asI8
(lp31
F3.2441854711760416
aI13
asI9
(lp32
F2.8444580881381953
aI13
asI10
(lp33
F3.0275018375677338
aI13
assI6
(dp34
I1
(lp35
F2.5581480437030324
aI13
asI2
(lp36
F4.6846320974155828
aI13
asI3
(lp37
F4.9789747547293874
aI13
asI4
(lp38
F5.0875530832601088
aI13
asI5
(lp39
F5.4431039579333662
aI13
asI6
(lp40
F5.6853633153187628
aI13
asI7
(lp41
F3.5879474475861381
aI13
asI8
(lp42
F3.1868095046232026
aI13
asI9
(lp43
F3.0246442126212632
aI13
asI10
(lp44
F3.0663280528090806
aI13
assI7
(dp45
I1
(lp46
F3.0028432640260045
aI13
asI2
(lp47
F5.1825194549973626
aI13
asI3
(lp48
F5.343009392650564
aI13
asI4
(lp49
F5.5532642902246145
aI13
asI5
(lp50
F5.8293629174599069
aI13
asI6
(lp51
F6.0324521815081535
aI13
asI7
(lp52
F4.6618452513581827
aI13
asI8
(lp53
F3.70563858178155
aI13
asI9
(lp54
F3.2595082458944402
aI13
asI10
(lp55
F3.3669029325041304
aI13
assI8
(dp56
I1
(lp57
F3.7575651407452786
aI13
asI2
(lp58
F5.7810857963841933
aI13
asI3
(lp59
F6.0222791985146378
aI13
asI4
(lp60
F6.3341501954432706
aI13
asI5
(lp61
F6.511825499390258
aI13
asI6
(lp62
F6.5747115845329152
aI13
asI7
(lp63
F6.0117321909138068
aI13
asI8
(lp64
F4.9632564152500169
aI13
asI9
(lp65
F4.0332713584666759
aI13
asI10
(lp66
F4.0669430104026301
aI13
assI9
(dp67
I1
(lp68
F5.1577963587994633
aI13
asI2
(lp69
F6.6568950548681407
aI13
asI3
(lp70
F6.9027981413719557
aI13
asI4
(lp71
F7.1603857782066775
aI13
asI5
(lp72
F7.2483205380097422
aI13
asI6
(lp73
F7.3551628928885302
aI13
asI7
(lp74
F6.8887888346140809
aI13
asI8
(lp75
F6.4044965786721848
aI13
asI9
(lp76
F5.415193702619586
aI13
asI10
(lp77
F5.0006923601371254
aI13
assI10
(dp78
I1
(lp79
F6.4431616637327034
aI13
asI2
(lp80
F7.5723866207458581
aI13
asI3
(lp81
F7.8094794387525734
aI13
asI4
(lp82
F8.0015139863177893
aI13
asI5
(lp83
F8.1304157404070754
aI13
asI6
(lp84
F8.2465365386376828
aI13
asI7
(lp85
F7.7251654936075731
aI13
asI8
(lp86
F7.4296228895294281
aI13
asI9
(lp87
F6.9036813909135439
aI13
asI10
(lp88
F6.4562365726374864
aI13
assI11
(dp89
I1
(lp90
F6.9332646385610781
aI13
asI2
(lp91
F7.9812864859514203
aI13
asI3
(lp92
F8.1608486967031038
aI13
asI4
(lp93
F8.3256584427773017
aI13
asI5
(lp94
F8.4342093783139287
aI13
asI6
(lp95
F8.6030672750953823
aI13
asI7
(lp96
F8.0340579145545377
aI13
asI8
(lp97
F7.6446490368340561
aI13
asI9
(lp98
F7.1726128243677367
aI13
asI10
(lp99
F7.0876151018037934
aI13
assI12
(dp100
I1
(lp101
F3.8365926656230629
aI13
asI2
(lp102
F4.7975580250096961
aI13
asI3
(lp103
F4.9864809924229485
aI13
asI4
(lp104
F5.1329313313839044
aI13
asI5
(lp105
F5.2304702697506773
aI13
asI6
(lp106
F5.2932254028626184
aI13
asI7
(lp107
F4.878514852117811
aI13
asI8
(lp108
F4.4922578200256629
aI13
asI9
(lp109
F4.0353039984492884
aI13
asI10
(lp110
F3.9110903311371912
aI13
assI13
(dp111
I1
(lp112
F3.6336131497943849
aI13
asI2
(lp113
F4.4462405846081907
aI13
asI3
(lp114
F4.6061650750474934
aI13
asI4
(lp115
F4.7348270659810607
aI13
asI5
(lp116
F4.813006154918142
aI13
asI6
(lp117
F4.8522897303479997
aI13
asI7
(lp118
F4.5964635700665291
aI13
asI8
(lp119
F4.2558237114985307
aI13
asI9
(lp120
F3.8088188499344371
aI13
asI10
(lp121
F3.6639755992974083
aI13
assI14
(dp122
I1
(lp123
F3.4146989641551553
aI13
asI2
(lp124
F4.0963746328655635
aI13
asI3
(lp125
F4.2295262192668019
aI13
asI4
(lp126
F4.3365117831892439
aI13
asI5
(lp127
F4.4081281061376529
aI13
asI6
(lp128
F4.4287308331048907
aI13
asI7
(lp129
F4.3140116469896057
aI13
asI8
(lp130
F4.0254996374244563
aI13
asI9
(lp131
F3.5768398197902691
aI13
asI10
(lp132
F3.4384987600603512
aI13
assI15
(dp133
I1
(lp134
F3.2086598877786012
aI13
asI2
(lp135
F3.7483412598023933
aI13
asI3
(lp136
F3.8336130647329574
aI13
asI4
(lp137
F3.9301078423025437
aI13
asI5
(lp138
F3.9849071323548819
aI13
asI6
(lp139
F4.0069801699749172
aI13
asI7
(lp140
F4.0443342276347671
aI13
asI8
(lp141
F3.7551966071214258
aI13
asI9
(lp142
F3.3715892231315583
aI13
asI10
(lp143
F3.2019539095620124
aI13
assI16
(dp144
I1
(lp145
F3.0283320189261422
aI13
asI2
(lp146
F3.4071647892141579
aI13
asI3
(lp147
F3.4528901731666926
aI13
asI4
(lp148
F3.5551078423025442
aI13
asI5
(lp149
F3.5730698943770767
aI13
asI6
(lp150
F3.5746448406336007
aI13
asI7
(lp151
F3.7995617799102908
aI13
asI8
(lp152
F3.5239386655712357
aI13
asI9
(lp153
F3.1303831929808044
aI13
asI10
(lp154
F2.9695959061196717
aI13
assI17
(dp155
I1
(lp156
F2.7594316752835306
aI13
asI2
(lp157
F2.9589527053670555
aI13
asI3
(lp158
F3.0156230924213507
aI13
asI4
(lp159
F3.098478350357067
aI13
asI5
(lp160
F3.0968794181866004
aI13
asI6
(lp161
F3.0752379604438018
aI13
asI7
(lp162
F3.347490773993131
aI13
asI8
(lp163
F3.2196491213353107
aI13
asI9
(lp164
F2.8598310457415406
aI13
asI10
(lp165
F2.6955117812892784
aI13
assI18
(dp166
I1
(lp167
F2.3868481954944269
aI13
asI2
(lp168
F2.4193185590255921
aI13
asI3
(lp169
F2.4587368648764407
aI13
asI4
(lp170
F2.4998778414512146
aI13
asI5
(lp171
F2.4907620648782358
aI13
asI6
(lp172
F2.4904278338615233
aI13
asI7
(lp173
F2.6299232064255635
aI13
asI8
(lp174
F2.6767386735741163
aI13
asI9
(lp175
F2.4732031387647964
aI13
asI10
(lp176
F2.2900025993193283
aI13
assI19
(dp177
I1
(lp178
F1.7611937452326467
aI13
asI2
(lp179
F1.732949439604603
aI13
asI3
(lp180
F1.75787691401649
aI13
asI4
(lp181
F1.7726051141784873
aI13
asI5
(lp182
F1.7757743498905207
aI13
asI6
(lp183
F1.7792209373097991
aI13
asI7
(lp184
F1.823894372873794
aI13
asI8
(lp185
F1.8704095596500658
aI13
asI9
(lp186
F1.8411737989114956
aI13
asI10
(lp187
F1.7528493628596189
aI13
assI20
(dp188
I1
(lp189
F0.96228070175438596
aI13
asI2
(lp190
F0.93462469733656173
aI13
asI3
(lp191
F0.9375
aI13
asI4
(lp192
F0.9403266331658291
aI13
asI5
(lp193
F0.93851944792973652
aI13
asI6
(lp194
F0.94903225806451608
aI13
asI7
(lp195
F0.96342925659472423
aI13
asI8
(lp196
F0.97104247104247099
aI13
asI9
(lp197
F0.96540880503144655
aI13
asI10
(lp198
F0.98165443629086058
aI13
assS'ITERATIONS'
p199
I10000
s.