(dp0
I4
(dp1
I1
(lp2
F2.6150737892681462
aI13
asI2
(lp3
F4.6377142401781652
aI13
asI3
(lp4
F4.8991383190915849
aI13
asI4
(lp5
F5.1797844083568361
aI13
asI5
(lp6
F5.4589600135712208
aI13
asI6
(lp7
F5.7082200425440668
aI13
asI7
(lp8
F3.4043538342531248
aI13
asI8
(lp9
F3.1676079260537651
aI13
asI9
(lp10
F2.9798767148666312
aI13
asI10
(lp11
F2.9931241707778908
aI13
assI5
(dp12
I1
(lp13
F2.6165824733821652
aI13
asI2
(lp14
F4.6376791186998414
aI13
asI3
(lp15
F4.8995421908209096
aI13
asI4
(lp16
F5.1807538977683398
aI13
asI5
(lp17
F5.4575021203418999
aI13
asI6
(lp18
F5.7095488294061081
aI13
asI7
(lp19
F3.4045825503566403
aI13
asI8
(lp20
F3.1676575429352551
aI13
asI9
(lp21
F2.9793749001977026
aI13
asI10
(lp22
F2.9924171548579461
aI13
assI6
(dp23
I1
(lp24
F2.6539271548988173
aI13
asI2
(lp25
F4.7024392621320024
aI13
asI3
(lp26
F4.9616763246326174
aI13
asI4
(lp27
F5.2410887469175433
aI13
asI5
(lp28
F5.5143497478736929
aI13
asI6
(lp29
F5.7664421108318145
aI13
asI7
(lp30
F3.5881337950199623
aI13
asI8
(lp31
F3.2320221465391255
aI13
asI9
(lp32
F3.0394790566317926
aI13
asI10
(lp33
F3.0530463431546706
aI13
assI7
(dp34
I1
(lp35
F2.9641873986066591
aI13
asI2
(lp36
F5.0967204704443523
aI13
asI3
(lp37
F5.3459963150029708
aI13
asI4
(lp38
F5.6098420159785647
aI13
asI5
(lp39
F5.8741152409044659
aI13
asI6
(lp40
F6.112386230418716
aI13
asI7
(lp41
F4.5789161442652704
aI13
asI8
(lp42
F3.7326375111798722
aI13
asI9
(lp43
F3.4009848235596118
aI13
asI10
(lp44
F3.4172302387534534
aI13
assI8
(dp45
I1
(lp46
F3.7925153043786692
aI13
asI2
(lp47
F5.8249786612119854
aI13
asI3
(lp48
F6.0542102221764704
aI13
asI4
(lp49
F6.2882309359192678
aI13
asI5
(lp50
F6.5376213962909429
aI13
asI6
(lp51
F6.744188498859546
aI13
asI7
(lp52
F5.8887618585879205
aI13
asI8
(lp53
F5.0212575167668714
aI13
asI9
(lp54
F4.1696678634071178
aI13
asI10
(lp55
F4.0843662770445004
aI13
assI9
(dp56
I1
(lp57
F5.0163330635753045
aI13
asI2
(lp58
F6.6858652690417504
aI13
asI3
(lp59
F6.8856920129598365
aI13
asI4
(lp60
F7.0914035084617746
aI13
asI5
(lp61
F7.3141819654971396
aI13
asI6
(lp62
F7.4875678967259649
aI13
asI7
(lp63
F6.8383117029238081
aI13
asI8
(lp64
F6.4049576794183825
aI13
asI9
(lp65
F5.5245405374988588
aI13
asI10
(lp66
F4.9954972109419877
aI13
assI10
(dp67
I1
(lp68
F6.3844515348314266
aI13
asI2
(lp69
F7.6566445742397962
aI13
asI3
(lp70
F7.823264210141601
aI13
asI4
(lp71
F7.9955595196711329
aI13
asI5
(lp72
F8.1858586204539883
aI13
asI6
(lp73
F8.3340799066437032
aI13
asI7
(lp74
F7.7747919772935514
aI13
asI8
(lp75
F7.4232724726120036
aI13
asI9
(lp76
F6.9734187583491343
aI13
asI10
(lp77
F6.4802612890188982
aI13
assI11
(dp78
I1
(lp79
F6.8382843363904886
aI13
asI2
(lp80
F8.0255939450687492
aI13
asI3
(lp81
F8.1815759833645743
aI13
asI4
(lp82
F8.3434962104702439
aI13
asI5
(lp83
F8.5168482132650496
aI13
asI6
(lp84
F8.6580230830989588
aI13
asI7
(lp85
F8.0037206995368564
aI13
asI8
(lp86
F7.6316743646345699
aI13
asI9
(lp87
F7.2448197677298527
aI13
asI10
(lp88
F7.0897649894536299
aI13
assI12
(dp89
I1
(lp90
F3.7813031216232682
aI13
asI2
(lp91
F4.848284109201451
aI13
asI3
(lp92
F4.9788204438994823
aI13
asI4
(lp93
F5.1151272905502845
aI13
asI5
(lp94
F5.2594483160419436
aI13
asI6
(lp95
F5.377042206749362
aI13
asI7
(lp96
F4.8518813015736519
aI13
asI8
(lp97
F4.492838004074545
aI13
asI9
(lp98
F4.1065451812696558
aI13
asI10
(lp99
F3.9162558966578889
aI13
assI13
(dp100
I1
(lp101
F3.5796575134909752
aI13
asI2
(lp102
F4.4916853154408933
aI13
asI3
(lp103
F4.6020727178924279
aI13
asI4
(lp104
F4.7168143615026779
aI13
asI5
(lp105
F4.8395482300458159
aI13
asI6
(lp106
F4.9375951202055788
aI13
asI7
(lp107
F4.5901900778006972
aI13
asI8
(lp108
F4.2498113674007056
aI13
asI9
(lp109
F3.8772308922289178
aI13
asI10
(lp110
F3.6859837258442556
aI13
assI14
(dp111
I1
(lp112
F3.3788018221412259
aI13
asI2
(lp113
F4.1350043583987537
aI13
asI3
(lp114
F4.2253031932796965
aI13
asI4
(lp115
F4.3183202412363801
aI13
asI5
(lp116
F4.4193089087311268
aI13
asI6
(lp117
F4.4989986724301154
aI13
asI7
(lp118
F4.3282544758029662
aI13
asI8
(lp119
F4.0058541768431706
aI13
asI9
(lp120
F3.647925028033681
aI13
asI10
(lp121
F3.4556289150208968
aI13
assI15
(dp122
I1
(lp123
F3.1770144755594685
aI13
asI2
(lp124
F3.778242522725912
aI13
asI3
(lp125
F3.8483068928626563
aI13
asI4
(lp126
F3.9196004500721497
aI13
asI5
(lp127
F3.9993848939203276
aI13
asI6
(lp128
F4.0599124581181005
aI13
asI7
(lp129
F4.0662811423374752
aI13
asI8
(lp130
F3.7620517923830166
aI13
asI9
(lp131
F3.4187536903838431
aI13
asI10
(lp132
F3.2254409674037769
aI13
assI16
(dp133
I1
(lp134
F2.9765339343465711
aI13
asI2
(lp135
F3.4216271487854586
aI13
asI3
(lp136
F3.4719044057721322
aI13
asI4
(lp137
F3.5213182762807955
aI13
asI5
(lp138
F3.5802615042269084
aI13
asI6
(lp139
F3.6209277151797332
aI13
asI7
(lp140
F3.8045684235462369
aI13
asI8
(lp141
F3.5182680109427036
aI13
asI9
(lp142
F3.1896929000688741
aI13
asI10
(lp143
F2.9953489985127173
aI13
assI17
(dp144
I1
(lp145
F2.7344617626619487
aI13
asI2
(lp146
F2.9995652612702077
aI13
asI3
(lp147
F3.0315456799709311
aI13
asI4
(lp148
F3.0614820925209552
aI13
asI5
(lp149
F3.1013191570076435
aI13
asI6
(lp150
F3.1241531741421147
aI13
asI7
(lp151
F3.3586692757687779
aI13
asI8
(lp152
F3.2105517388891851
aI13
asI9
(lp153
F2.8999092815988421
aI13
asI10
(lp154
F2.7045313998888325
aI13
assI18
(dp155
I1
(lp156
F2.3476184781386853
aI13
asI2
(lp157
F2.4451533229569322
aI13
asI3
(lp158
F2.4622404955577126
aI13
asI4
(lp159
F2.4785282241461597
aI13
asI5
(lp160
F2.5013666855542063
aI13
asI6
(lp161
F2.5124436225660296
aI13
asI7
(lp162
F2.6583553798373525
aI13
asI8
(lp163
F2.6576718794767955
aI13
asI9
(lp164
F2.49181196475649
aI13
asI10
(lp165
F2.2924294070776599
aI13
assI19
(dp166
I1
(lp167
F1.7527098461753132
aI13
asI2
(lp168
F1.757111023103755
aI13
asI3
(lp169
F1.7642264277393007
aI13
asI4
(lp170
F1.7709114487902609
aI13
asI5
(lp171
F1.7810749839595097
aI13
asI6
(lp172
F1.7862157898324953
aI13
asI7
(lp173
F1.8499172847644476
aI13
asI8
(lp174
F1.8609435862309853
aI13
asI9
(lp175
F1.848828345196285
aI13
asI10
(lp176
F1.7590865689635224
aI13
assI20
(dp177
I1
(lp178
F0.95199372334750021
aI13
asI2
(lp179
F0.9400470733567029
aI13
asI3
(lp180
F0.94183184274014586
aI13
asI4
(lp181
F0.94344517286164886
aI13
asI5
(lp182
F0.94570242411493199
aI13
asI6
(lp183
F0.94709842432545721
aI13
asI7
(lp184
F0.96311342942277467
aI13
asI8
(lp185
F0.96520544178592038
aI13
asI9
(lp186
F0.96964767416159547
aI13
asI10
(lp187
F0.98112723455421647
aI13
assI21
(dp188
I1
(lp189
I0
aI1
asI2
(lp190
I0
aI1
asI3
(lp191
I0
aI1
asI4
(lp192
I0
aI1
asI5
(lp193
I0
aI1
asI6
(lp194
I0
aI1
asI7
(lp195
I0
aI1
asI8
(lp196
I0
aI1
asI9
(lp197
I0
aI1
asI10
(lp198
I0
aI1
assS'ITERATIONS'
p199
I20000000
s.