(dp0
I3
(dp1
I1
(lp2
F4.560247283126584
aI13
asI2
(lp3
F5.678689801477385
aI13
asI3
(lp4
F5.909232536974516
aI13
asI4
(lp5
F6.140935794748215
aI13
asI5
(lp6
F6.390119847739061
aI13
asI6
(lp7
F6.596402548120556
aI13
asI7
(lp8
F5.9058931642771695
aI13
asI8
(lp9
F5.422886525223205
aI13
asI9
(lp10
F4.8969087061513505
aI13
asI10
(lp11
F4.601385758359497
aI13
assI4
(dp12
I1
(lp13
F4.416984641566061
aI13
asI2
(lp14
F5.609868926348658
aI13
asI3
(lp15
F5.846198780303718
aI13
asI4
(lp16
F6.0690800649304215
aI13
asI5
(lp17
F6.323594493282312
aI13
asI6
(lp18
F6.533937761023093
aI13
asI7
(lp19
F5.718129964731442
aI13
asI8
(lp20
F5.25135375041292
aI13
asI9
(lp21
F4.7428599618021305
aI13
asI10
(lp22
F4.456760168104347
aI13
assI5
(dp23
I1
(lp24
F4.270874680529491
aI13
asI2
(lp25
F5.544788907019581
aI13
asI3
(lp26
F5.776132507767099
aI13
asI4
(lp27
F6.00840643013022
aI13
asI5
(lp28
F6.258208472682061
aI13
asI6
(lp29
F6.4826376982165925
aI13
asI7
(lp30
F5.520052189031733
aI13
asI8
(lp31
F5.075696423727162
aI13
asI9
(lp32
F4.583951445566899
aI13
asI10
(lp33
F4.306857747598145
aI13
assI6
(dp34
I1
(lp35
F4.135856952272197
aI13
asI2
(lp36
F5.5147549938782
aI13
asI3
(lp37
F5.758008466693516
aI13
asI4
(lp38
F5.996536386392441
aI13
asI5
(lp39
F6.239133434716536
aI13
asI6
(lp40
F6.462781214072971
aI13
asI7
(lp41
F5.434203779395117
aI13
asI8
(lp42
F4.926046287308789
aI13
asI9
(lp43
F4.462748639440258
aI13
asI10
(lp44
F4.207062981154691
aI13
assI7
(dp45
I1
(lp46
F4.188717518781096
aI13
asI2
(lp47
F5.777104717293216
aI13
asI3
(lp48
F6.004848789525236
aI13
asI4
(lp49
F6.243423295403063
aI13
asI5
(lp50
F6.47347944728771
aI13
asI6
(lp51
F6.68979882463973
aI13
asI7
(lp52
F6.060233655747593
aI13
asI8
(lp53
F5.1154221773366855
aI13
asI9
(lp54
F4.609924052236222
aI13
asI10
(lp55
F4.428118555747235
aI13
assI8
(dp56
I1
(lp57
F4.789234925505055
aI13
asI2
(lp58
F6.332613713800055
aI13
asI3
(lp59
F6.538388618237115
aI13
asI4
(lp60
F6.755538797088827
aI13
asI5
(lp61
F6.98175006833237
aI13
asI6
(lp62
F7.168920972191515
aI13
asI7
(lp63
F7.04287623249294
aI13
asI8
(lp64
F6.097946204481425
aI13
asI9
(lp65
F5.133508217081841
aI13
asI10
(lp66
F4.894168723476309
aI13
assI9
(dp67
I1
(lp68
F5.694387220072845
aI13
asI2
(lp69
F6.964760529424479
aI13
asI3
(lp70
F7.15323079756382
aI13
asI4
(lp71
F7.344432000865018
aI13
asI5
(lp72
F7.543315415613136
aI13
asI6
(lp73
F7.711073279969735
aI13
asI7
(lp74
F7.609021905833465
aI13
asI8
(lp75
F7.132516883652275
aI13
asI9
(lp76
F6.1602699466922495
aI13
asI10
(lp77
F5.525245109247166
aI13
assI10
(dp78
I1
(lp79
F6.71589194369144
aI13
asI2
(lp80
F7.669580074168733
aI13
asI3
(lp81
F7.829501588465926
aI13
asI4
(lp82
F8.003408908400557
aI13
asI5
(lp83
F8.179714047298772
aI13
asI6
(lp84
F8.331472769648805
aI13
asI7
(lp85
F8.171404214034407
aI13
asI8
(lp86
F7.784631049699017
aI13
asI9
(lp87
F7.257092606232992
aI13
asI10
(lp88
F6.677791949518127
aI13
assI11
(dp89
I1
(lp90
F7.1658649307724565
aI13
asI2
(lp91
F8.038819569887298
aI13
asI3
(lp92
F8.192476660660446
aI13
asI4
(lp93
F8.351266155280555
aI13
asI5
(lp94
F8.513292148226615
aI13
asI6
(lp95
F8.659936022548315
aI13
asI7
(lp96
F8.40044462016402
aI13
asI8
(lp97
F7.989749197237006
aI13
asI9
(lp98
F7.527833414054673
aI13
asI10
(lp99
F7.287099842415665
aI13
assI12
(dp100
I1
(lp101
F4.002916519458479
aI13
asI2
(lp102
F4.845714160081585
aI13
asI3
(lp103
F4.983032517472715
aI13
asI4
(lp104
F5.119434136439961
aI13
asI5
(lp105
F5.2583532178196855
aI13
asI6
(lp106
F5.379323451558086
aI13
asI7
(lp107
F5.117585919144709
aI13
asI8
(lp108
F4.729735822940551
aI13
asI9
(lp109
F4.290209544645779
aI13
asI10
(lp110
F4.033272927818078
aI13
assI13
(dp111
I1
(lp112
F3.716993910925731
aI13
asI2
(lp113
F4.489820265093756
aI13
asI3
(lp114
F4.605075461496545
aI13
asI4
(lp115
F4.719976369996544
aI13
asI5
(lp116
F4.835895049352412
aI13
asI6
(lp117
F4.939329862762898
aI13
asI7
(lp118
F4.75204406777723
aI13
asI8
(lp119
F4.391897549873369
aI13
asI9
(lp120
F3.983766005742509
aI13
asI10
(lp121
F3.7451820044025004
aI13
assI14
(dp122
I1
(lp123
F3.4514943458596075
aI13
asI2
(lp124
F4.13379347937947
aI13
asI3
(lp125
F4.22579575968716
aI13
asI4
(lp126
F4.32286160293958
aI13
asI5
(lp127
F4.414888816269892
aI13
asI6
(lp128
F4.500762032967174
aI13
asI7
(lp129
F4.412612348650285
aI13
asI8
(lp130
F4.078190582025272
aI13
asI9
(lp131
F3.6992112910466153
aI13
asI10
(lp132
F3.4776690040880363
aI13
assI15
(dp133
I1
(lp134
F3.2049590354410635
aI13
asI2
(lp135
F3.776490803070675
aI13
asI3
(lp136
F3.8484795686447497
aI13
asI4
(lp137
F3.925503224587991
aI13
asI5
(lp138
F3.99565771282761
aI13
asI6
(lp139
F4.060285104741897
aI13
asI7
(lp140
F4.097425752318122
aI13
asI8
(lp141
F3.786891254737752
aI13
asI9
(lp142
F3.434981913114714
aI13
asI10
(lp143
F3.229264075224605
aI13
assI16
(dp144
I1
(lp145
F2.9760333900524163
aI13
asI2
(lp146
F3.421186571577265
aI13
asI3
(lp147
F3.4697315806732494
aI13
asI4
(lp148
F3.525635663549571
aI13
asI5
(lp149
F3.5757850033751075
aI13
asI6
(lp150
F3.620175446369902
aI13
asI7
(lp151
F3.8047524842953986
aI13
asI8
(lp152
F3.516399022256484
aI13
asI9
(lp153
F3.189626062177949
aI13
asI10
(lp154
F2.9982220520581158
aI13
assI17
(dp155
I1
(lp156
F2.736013083313786
aI13
asI2
(lp157
F3.000832479711473
aI13
asI3
(lp158
F3.03023956718601
aI13
asI4
(lp159
F3.064769924932224
aI13
asI5
(lp160
F3.0988249018876193
aI13
asI6
(lp161
F3.124330211366007
aI13
asI7
(lp162
F3.356889089330804
aI13
asI8
(lp163
F3.2101338606148184
aI13
asI9
(lp164
F2.8995987448394733
aI13
asI10
(lp165
F2.7053035971224935
aI13
assI18
(dp166
I1
(lp167
F2.3480338142775246
aI13
asI2
(lp168
F2.446508205582828
aI13
asI3
(lp169
F2.46267835026788
aI13
asI4
(lp170
F2.4812207181130894
aI13
asI5
(lp171
F2.4986833678573754
aI13
asI6
(lp172
F2.5130638712956
aI13
asI7
(lp173
F2.6546698836121774
aI13
asI8
(lp174
F2.6590039731080046
aI13
asI9
(lp175
F2.491552483780807
aI13
asI10
(lp176
F2.2934028006468647
aI13
assI19
(dp177
I1
(lp178
F1.7533635082870058
aI13
asI2
(lp179
F1.7571589459088206
aI13
asI3
(lp180
F1.76309760895915
aI13
asI4
(lp181
F1.7721993132738418
aI13
asI5
(lp182
F1.7797020124707412
aI13
asI6
(lp183
F1.7870455558687566
aI13
asI7
(lp184
F1.8497853617571205
aI13
asI8
(lp185
F1.8624189786623813
aI13
asI9
(lp186
F1.8481582311194322
aI13
asI10
(lp187
F1.7592808029803366
aI13
assI20
(dp188
I1
(lp189
F0.951677251990339
aI13
asI2
(lp190
F0.9401193889075046
aI13
asI3
(lp191
F0.9420446498453282
aI13
asI4
(lp192
F0.944075864450254
aI13
asI5
(lp193
F0.9454473563900112
aI13
asI6
(lp194
F0.9482666534176303
aI13
asI7
(lp195
F0.9630660819001626
aI13
asI8
(lp196
F0.9653958472541886
aI13
asI9
(lp197
F0.9692025835299962
aI13
asI10
(lp198
F0.9811917169730913
aI13
assI21
(dp199
I1
(lp200
I0
aI13
asI2
(lp201
I0
aI13
asI3
(lp202
I0
aI13
asI4
(lp203
I0
aI13
asI5
(lp204
I0
aI13
asI6
(lp205
I0
aI13
asI7
(lp206
I0
aI13
asI8
(lp207
I0
aI13
asI9
(lp208
I0
aI13
asI10
(lp209
I0
aI13
assS'ITERATIONS'
p210
I1000000
s.