(dp0
I4
(dp1
I1
S'Hit'
p2
sI2
g2
sI3
g2
sI4
g2
sI5
g2
sI6
g2
sI7
g2
sI8
g2
sI9
g2
sI10
g2
ssI5
(dp3
I1
g2
sI2
g2
sI3
g2
sI4
g2
sI5
g2
sI6
g2
sI7
g2
sI8
g2
sI9
g2
sI10
g2
ssI6
(dp4
I1
g2
sI2
g2
sI3
g2
sI4
g2
sI5
g2
sI6
g2
sI7
g2
sI8
g2
sI9
g2
sI10
g2
ssI7
(dp5
I1
g2
sI2
g2
sI3
g2
sI4
g2
sI5
g2
sI6
g2
sI7
g2
sI8
g2
sI9
g2
sI10
g2
ssI8
(dp6
I1
g2
sI2
g2
sI3
g2
sI4
g2
sI5
g2
sI6
g2
sI7
g2
sI8
g2
sI9
g2
sI10
g2
ssI9
(dp7
I1
g2
sI2
g2
sI3
S'Double'
p8
sI4
g8
sI5
g8
sI6
g8
sI7
g2
sI8
g2
sI9
g2
sI10
g2
ssI10
(dp9
I1
g2
sI2
g8
sI3
g8
sI4
g8
sI5
g8
sI6
g8
sI7
g8
sI8
g8
sI9
g8
sI10
g2
ssI11
(dp10
I1
g8
sI2
g8
sI3
g8
sI4
g8
sI5
g8
sI6
g8
sI7
g8
sI8
g8
sI9
g8
sI10
g8
ssI12
(dp11
I1
g2
sI2
g2
sI3
g2
sI4
S'Stay'
p12
sI5
g12
sI6
g12
sI7
g2
sI8
g2
sI9
g2
sI10
g2
ssI13
(dp13
I1
g2
sI2
g12
sI3
g12
sI4
g12
sI5
g12
sI6
g12
sI7
g2
sI8
g2
sI9
g2
sI10
g2
ssI14
(dp14
I1
g2
sI2
g12
sI3
g12
sI4
g12
sI5
g12
sI6
g12
sI7
g2
sI8
g2
sI9
g2
sI10
g2
ssI15
(dp15
I1
S'Sur'
p16
sI2
g12
sI3
g12
sI4
g12
sI5
g12
sI6
g12
sI7
g2
sI8
g2
sI9
g2
sI10
g16
ssI16
(dp17
I1
g16
sI2
g12
sI3
g12
sI4
g12
sI5
g12
sI6
g12
sI7
g2
sI8
g2
sI9
g16
sI10
g16
ssI17
(dp18
I1
g16
sI2
g12
sI3
g12
sI4
g12
sI5
g12
sI6
g12
sI7
g12
sI8
g12
sI9
g12
sI10
g12
ssI18
(dp19
I1
g12
sI2
g12
sI3
g12
sI4
g12
sI5
g12
sI6
g12
sI7
g12
sI8
g12
sI9
g12
sI10
g12
ssI19
(dp20
I1
g12
sI2
g12
sI3
g12
sI4
g12
sI5
g12
sI6
g12
sI7
g12
sI8
g12
sI9
g12
sI10
g12
ssI20
(dp21
I1
g12
sI2
g12
sI3
g12
sI4
g12
sI5
g12
sI6
g12
sI7
g12
sI8
g12
sI9
g12
sI10
g12
ssI21
(dp22
I1
g12
sI2
g12
sI3
g12
sI4
g12
sI5
g12
sI6
g12
sI7
g12
sI8
g12
sI9
g12
sI10
g12
ssS'ITERATIONS'
p23
I5000000
s.