(dp0
I4
(dp1
I1
(lp2
F4.5274423373887922
aI13
asI2
(lp3
F5.6970683014153938
aI13
asI3
(lp4
F5.9098923711118276
aI13
asI4
(lp5
F6.1434929837660048
aI13
asI5
(lp6
F6.3943737404294598
aI13
asI6
(lp7
F6.6062593474898792
aI13
asI7
(lp8
F5.8388722736437355
aI13
asI8
(lp9
F5.3817954366375762
aI13
asI9
(lp10
F4.8561269690340927
aI13
asI10
(lp11
F4.5589829722467714
aI13
assI5
(dp12
I1
(lp13
F4.3811015991214006
aI13
asI2
(lp14
F5.6225219217941147
aI13
asI3
(lp15
F5.8393271631424319
aI13
asI4
(lp16
F6.0763841115213246
aI13
asI5
(lp17
F6.3274995714962055
aI13
asI6
(lp18
F6.5442655216752597
aI13
asI7
(lp19
F5.6537736182714218
aI13
asI8
(lp20
F5.2074365619734397
aI13
asI9
(lp21
F4.7003449059886444
aI13
asI10
(lp22
F4.412370000570391
aI13
assI6
(dp23
I1
(lp24
F4.2260125196321354
aI13
asI2
(lp25
F5.554251682080916
aI13
asI3
(lp26
F5.7726400210186473
aI13
asI4
(lp27
F6.0134018296309391
aI13
asI5
(lp28
F6.2648826452332376
aI13
asI6
(lp29
F6.4864378720959639
aI13
asI7
(lp30
F5.4116829337421199
aI13
asI8
(lp31
F5.0170391167498218
aI13
asI9
(lp32
F4.5236438377649746
aI13
asI10
(lp33
F4.2587329749935208
aI13
assI7
(dp34
I1
(lp35
F4.192889736904811
aI13
asI2
(lp36
F5.7578572136904134
aI13
asI3
(lp37
F5.9740368798934256
aI13
asI4
(lp38
F6.2078742378410512
aI13
asI5
(lp39
F6.4544484480379687
aI13
asI6
(lp40
F6.6695558054342925
aI13
asI7
(lp41
F6.0119047093977525
aI13
asI8
(lp42
F5.0926160881449967
aI13
asI9
(lp43
F4.6085734839935881
aI13
asI10
(lp44
F4.3962601336905269
aI13
assI8
(dp45
I1
(lp46
F4.7775043621650486
aI13
asI2
(lp47
F6.3288961209890582
aI13
asI3
(lp48
F6.5303484948992958
aI13
asI4
(lp49
F6.7409089445481492
aI13
asI5
(lp50
F6.9765826867148739
aI13
asI6
(lp51
F7.1660839218553463
aI13
asI7
(lp52
F7.0214435052003736
aI13
asI8
(lp53
F6.1026944726195875
aI13
asI9
(lp54
F5.1228554484298128
aI13
asI10
(lp55
F4.8788819149973879
aI13
assI9
(dp56
I1
(lp57
F5.721808203036197
aI13
asI2
(lp58
F6.9857064891303153
aI13
asI3
(lp59
F7.1648965287822683
aI13
asI4
(lp60
F7.3546877458526145
aI13
asI5
(lp61
F7.5696265872883055
aI13
asI6
(lp62
F7.733174340641547
aI13
asI7
(lp63
F7.6325263801278922
aI13
asI8
(lp64
F7.1614261946190254
aI13
asI9
(lp65
F6.182443176546343
aI13
asI10
(lp66
F5.5457166720237643
aI13
assI10
(dp67
I1
(lp68
F6.7192936146713951
aI13
asI2
(lp69
F7.673783068062682
aI13
asI3
(lp70
F7.8295102587213163
aI13
asI4
(lp71
F7.9955595196711329
aI13
asI5
(lp72
F8.1858586204539883
aI13
asI6
(lp73
F8.3340799066437032
aI13
asI7
(lp74
F8.1642363634858661
aI13
asI8
(lp75
F7.787826129136624
aI13
asI9
(lp76
F7.2606698870222131
aI13
asI10
(lp77
F6.6792925940561236
aI13
assI11
(dp78
I1
(lp79
F7.1712830397643597
aI13
asI2
(lp80
F8.0413702607485948
aI13
asI3
(lp81
F8.1873021601121874
aI13
asI4
(lp82
F8.3434962104702439
aI13
asI5
(lp83
F8.5168482132650496
aI13
asI6
(lp84
F8.6580230830989588
aI13
asI7
(lp85
F8.3908154121585241
aI13
asI8
(lp86
F7.9940501763142615
aI13
asI9
(lp87
F7.5300969581626127
aI13
asI10
(lp88
F7.286940819690618
aI13
assI12
(dp89
I1
(lp90
F4.005477165259463
aI13
asI2
(lp91
F4.848284109201451
aI13
asI3
(lp92
F4.9788204438994823
aI13
asI4
(lp93
F5.1151272905502845
aI13
asI5
(lp94
F5.2594483160419436
aI13
asI6
(lp95
F5.377042206749362
aI13
asI7
(lp96
F5.1064869661683341
aI13
asI8
(lp97
F4.7323827969760881
aI13
asI9
(lp98
F4.2893700310822371
aI13
asI10
(lp99
F4.0317056364295798
aI13
assI13
(dp100
I1
(lp101
F3.7179104365481592
aI13
asI2
(lp102
F4.4916853154408933
aI13
asI3
(lp103
F4.6020727178924279
aI13
asI4
(lp104
F4.7168143615026779
aI13
asI5
(lp105
F4.8395482300458159
aI13
asI6
(lp106
F4.9375951202055788
aI13
asI7
(lp107
F4.7399378891473427
aI13
asI8
(lp108
F4.3926390011673693
aI13
asI9
(lp109
F3.9814356655925205
aI13
asI10
(lp110
F3.7422515675925738
aI13
assI14
(dp111
I1
(lp112
F3.4509825235280771
aI13
asI2
(lp113
F4.1350043583987537
aI13
asI3
(lp114
F4.2253031932796965
aI13
asI4
(lp115
F4.3183202412363801
aI13
asI5
(lp116
F4.4193089087311268
aI13
asI6
(lp117
F4.4989986724301154
aI13
asI7
(lp118
F4.3996288785564399
aI13
asI8
(lp119
F4.0772681439361182
aI13
asI9
(lp120
F3.6955869216673825
aI13
asI10
(lp121
F3.4735763873989134
aI13
assI15
(dp122
I1
(lp123
F3.2054980831424618
aI13
asI2
(lp124
F3.778242522725912
aI13
asI3
(lp125
F3.8483068928626563
aI13
asI4
(lp126
F3.9196004500721497
aI13
asI5
(lp127
F3.9993848939203276
aI13
asI6
(lp128
F4.0599124581181005
aI13
asI7
(lp129
F4.0972275330497938
aI13
asI8
(lp130
F3.7889040117844495
aI13
asI9
(lp131
F3.4350538923818643
aI13
asI10
(lp132
F3.2257604599367724
aI13
assI16
(dp133
I1
(lp134
F2.9765339343465711
aI13
asI2
(lp135
F3.4216271487854586
aI13
asI3
(lp136
F3.4719044057721322
aI13
asI4
(lp137
F3.5213182762807955
aI13
asI5
(lp138
F3.5802615042269084
aI13
asI6
(lp139
F3.6209277151797332
aI13
asI7
(lp140
F3.8045684235462369
aI13
asI8
(lp141
F3.5182680109427036
aI13
asI9
(lp142
F3.1896929000688741
aI13
asI10
(lp143
F2.9953489985127173
aI13
assI17
(dp144
I1
(lp145
F2.7344617626619487
aI13
asI2
(lp146
F2.9995652612702077
aI13
asI3
(lp147
F3.0315456799709311
aI13
asI4
(lp148
F3.0614820925209552
aI13
asI5
(lp149
F3.1013191570076435
aI13
asI6
(lp150
F3.1241531741421147
aI13
asI7
(lp151
F3.3586692757687779
aI13
asI8
(lp152
F3.2105517388891851
aI13
asI9
(lp153
F2.8999092815988421
aI13
asI10
(lp154
F2.7045313998888325
aI13
assI18
(dp155
I1
(lp156
F2.3476184781386853
aI13
asI2
(lp157
F2.4451533229569322
aI13
asI3
(lp158
F2.4622404955577126
aI13
asI4
(lp159
F2.4785282241461597
aI13
asI5
(lp160
F2.5013666855542063
aI13
asI6
(lp161
F2.5124436225660296
aI13
asI7
(lp162
F2.6583553798373525
aI13
asI8
(lp163
F2.6576718794767955
aI13
asI9
(lp164
F2.49181196475649
aI13
asI10
(lp165
F2.2924294070776599
aI13
assI19
(dp166
I1
(lp167
F1.7527098461753132
aI13
asI2
(lp168
F1.757111023103755
aI13
asI3
(lp169
F1.7642264277393007
aI13
asI4
(lp170
F1.7709114487902609
aI13
asI5
(lp171
F1.7810749839595097
aI13
asI6
(lp172
F1.7862157898324953
aI13
asI7
(lp173
F1.8499172847644476
aI13
asI8
(lp174
F1.8609435862309853
aI13
asI9
(lp175
F1.848828345196285
aI13
asI10
(lp176
F1.7590865689635224
aI13
assI20
(dp177
I1
(lp178
F0.95199372334750021
aI13
asI2
(lp179
F0.9400470733567029
aI13
asI3
(lp180
F0.94183184274014586
aI13
asI4
(lp181
F0.94344517286164886
aI13
asI5
(lp182
F0.94570242411493199
aI13
asI6
(lp183
F0.94709842432545721
aI13
asI7
(lp184
F0.96311342942277467
aI13
asI8
(lp185
F0.96520544178592038
aI13
asI9
(lp186
F0.96964767416159547
aI13
asI10
(lp187
F0.98112723455421647
aI13
assI21
(dp188
I1
(lp189
I0
aI13
asI2
(lp190
I0
aI13
asI3
(lp191
I0
aI13
asI4
(lp192
I0
aI13
asI5
(lp193
I0
aI13
asI6
(lp194
I0
aI13
asI7
(lp195
I0
aI13
asI8
(lp196
I0
aI13
asI9
(lp197
I0
aI13
asI10
(lp198
I0
aI13
assS'ITERATIONS'
p199
I20000000
s.