(dp0
I3
(dp1
I1
(lp2
F2.6210021294864694
aI13
asI2
(lp3
F4.6360888141072367
aI13
asI3
(lp4
F4.8977486441060307
aI13
asI4
(lp5
F5.1823300657151261
aI13
asI5
(lp6
F5.4600244500247594
aI13
asI6
(lp7
F5.7100010617499892
aI13
asI7
(lp8
F3.4088612537665073
aI13
asI8
(lp9
F3.171338977835418
aI13
asI9
(lp10
F2.9835840887715737
aI13
asI10
(lp11
F2.9906595142487014
aI13
assI4
(dp12
I1
(lp13
F2.6161405976581875
aI13
asI2
(lp14
F4.6369108504239396
aI13
asI3
(lp15
F4.894876625906611
aI13
asI4
(lp16
F5.1827369752888117
aI13
asI5
(lp17
F5.4572231294691438
aI13
asI6
(lp18
F5.7129461135001023
aI13
asI7
(lp19
F3.4123495306611589
aI13
asI8
(lp20
F3.1716954127698451
aI13
asI9
(lp21
F2.9848496196205732
aI13
asI10
(lp22
F2.9929237121846102
aI13
assI5
(dp23
I1
(lp24
F2.6142998604908443
aI13
asI2
(lp25
F4.6359704883931876
aI13
asI3
(lp26
F4.8974998807649781
aI13
asI4
(lp27
F5.1839017072406133
aI13
asI5
(lp28
F5.4574909887618963
aI13
asI6
(lp29
F5.7132531523144667
aI13
asI7
(lp30
F3.4051220586134532
aI13
asI8
(lp31
F3.1676343927687776
aI13
asI9
(lp32
F2.9873548539786765
aI13
asI10
(lp33
F2.994704421093227
aI13
assI6
(dp34
I1
(lp35
F2.6613210663526101
aI13
asI2
(lp36
F4.6980115308195636
aI13
asI3
(lp37
F4.9596321874348943
aI13
asI4
(lp38
F5.2411502668683045
aI13
asI5
(lp39
F5.5138171336231503
aI13
asI6
(lp40
F5.7694025876198758
aI13
asI7
(lp41
F3.5936474231859403
aI13
asI8
(lp42
F3.2318105187999437
aI13
asI9
(lp43
F3.0432813721397323
aI13
asI10
(lp44
F3.0549664496636768
aI13
assI7
(dp45
I1
(lp46
F2.9690827466351157
aI13
asI2
(lp47
F5.0918216957436302
aI13
asI3
(lp48
F5.3434735103482094
aI13
asI4
(lp49
F5.6102189568092165
aI13
asI5
(lp50
F5.8724557464164384
aI13
asI6
(lp51
F6.1092095720458905
aI13
asI7
(lp52
F4.5865189523506462
aI13
asI8
(lp53
F3.7352798087250303
aI13
asI9
(lp54
F3.4020101968485603
aI13
asI10
(lp55
F3.4195240005856498
aI13
assI8
(dp56
I1
(lp57
F3.7974728449660793
aI13
asI2
(lp58
F5.8222793266086805
aI13
asI3
(lp59
F6.0470756150575227
aI13
asI4
(lp60
F6.2881724438262578
aI13
asI5
(lp61
F6.536257588519585
aI13
asI6
(lp62
F6.7447838778365821
aI13
asI7
(lp63
F5.8897186395149621
aI13
asI8
(lp64
F5.0189436718062694
aI13
asI9
(lp65
F4.1721074125710382
aI13
asI10
(lp66
F4.0854051918065375
aI13
assI9
(dp67
I1
(lp68
F5.014796229480436
aI13
asI2
(lp69
F6.6905475357120432
aI13
asI3
(lp70
F6.8831311855986854
aI13
asI4
(lp71
F7.0944038653661252
aI13
asI5
(lp72
F7.3172435382579293
aI13
asI6
(lp73
F7.4894528084051952
aI13
asI7
(lp74
F6.8418092191507389
aI13
asI8
(lp75
F6.4067054776449393
aI13
asI9
(lp76
F5.5222143438044409
aI13
asI10
(lp77
F4.9978713949850757
aI13
assI10
(dp78
I1
(lp79
F6.3898485160012477
aI13
asI2
(lp80
F7.6545755687250487
aI13
asI3
(lp81
F7.8239892687100978
aI13
asI4
(lp82
F7.9996165632295213
aI13
asI5
(lp83
F8.189640191344564
aI13
asI6
(lp84
F8.3322126384190707
aI13
asI7
(lp85
F7.7759900066370227
aI13
asI8
(lp86
F7.4254060283499115
aI13
asI9
(lp87
F6.9715028153139107
aI13
asI10
(lp88
F6.4824463102912828
aI13
assI11
(dp89
I1
(lp90
F6.8419703183989693
aI13
asI2
(lp91
F8.0248788962325683
aI13
asI3
(lp92
F8.1799489676723933
aI13
asI4
(lp93
F8.3456042277656834
aI13
asI5
(lp94
F8.5182062687021691
aI13
asI6
(lp95
F8.6583609954168939
aI13
asI7
(lp96
F8.004947455516934
aI13
asI8
(lp97
F7.6341531407127254
aI13
asI9
(lp98
F7.2447156422395649
aI13
asI10
(lp99
F7.0919617596453097
aI13
assI12
(dp100
I1
(lp101
F3.7828350008856564
aI13
asI2
(lp102
F4.8462029159351765
aI13
asI3
(lp103
F4.9769848929692779
aI13
asI4
(lp104
F5.1175718361053848
aI13
asI5
(lp105
F5.2613421207422943
aI13
asI6
(lp106
F5.3779033307168636
aI13
asI7
(lp107
F4.8540983045145243
aI13
asI8
(lp108
F4.4938902101440146
aI13
asI9
(lp109
F4.106860851869409
aI13
asI10
(lp110
F3.9176274807722868
aI13
assI13
(dp111
I1
(lp112
F3.580703753352378
aI13
asI2
(lp113
F4.4901230997758228
aI13
asI3
(lp114
F4.6003198335624793
aI13
asI4
(lp115
F4.718684898511083
aI13
asI5
(lp116
F4.8403618388288896
aI13
asI6
(lp117
F4.9389888556487458
aI13
asI7
(lp118
F4.5920052576292631
aI13
asI8
(lp119
F4.2495346127780689
aI13
asI9
(lp120
F3.8771214783840309
aI13
asI10
(lp121
F3.6879421033808706
aI13
assI14
(dp122
I1
(lp123
F3.3800401895273557
aI13
asI2
(lp124
F4.1333103614403157
aI13
asI3
(lp125
F4.2245160896595264
aI13
asI4
(lp126
F4.3195264938270777
aI13
asI5
(lp127
F4.420268663835377
aI13
asI6
(lp128
F4.4989145660430996
aI13
asI7
(lp129
F4.3284462333742111
aI13
asI8
(lp130
F4.0050250379518415
aI13
asI9
(lp131
F3.6471886496608792
aI13
asI10
(lp132
F3.4576591019214087
aI13
assI15
(dp133
I1
(lp134
F3.1801778130839207
aI13
asI2
(lp135
F3.7766999142903841
aI13
asI3
(lp136
F3.8477432613664604
aI13
asI4
(lp137
F3.9199666941702258
aI13
asI5
(lp138
F4.0002726362272538
aI13
asI6
(lp139
F4.0590148424714583
aI13
asI7
(lp140
F4.0671250220910258
aI13
asI8
(lp141
F3.7616648414329346
aI13
asI9
(lp142
F3.4169000524443645
aI13
asI10
(lp143
F3.2268276291755171
aI13
assI16
(dp144
I1
(lp145
F2.9781874071270229
aI13
asI2
(lp146
F3.4208451516309029
aI13
asI3
(lp147
F3.4712188673479041
aI13
asI4
(lp148
F3.5218338750096896
aI13
asI5
(lp149
F3.581255867934571
aI13
asI6
(lp150
F3.6192667900928734
aI13
asI7
(lp151
F3.8049276522049631
aI13
asI8
(lp152
F3.5185109343318155
aI13
asI9
(lp153
F3.1876503659716766
aI13
asI10
(lp154
F2.9963744844039968
aI13
assI17
(dp155
I1
(lp156
F2.7357745748354345
aI13
asI2
(lp157
F2.9996972786391103
aI13
asI3
(lp158
F3.0306036425114158
aI13
asI4
(lp159
F3.0618194203155027
aI13
asI5
(lp160
F3.1026823036737965
aI13
asI6
(lp161
F3.1235131852483593
aI13
asI7
(lp162
F3.3576656098205233
aI13
asI8
(lp163
F3.210442344640553
aI13
asI9
(lp164
F2.8983980237243605
aI13
asI10
(lp165
F2.7051353479311264
aI13
assI18
(dp166
I1
(lp167
F2.3478546343188156
aI13
asI2
(lp168
F2.446111236948679
aI13
asI3
(lp169
F2.4624286955436712
aI13
asI4
(lp170
F2.4793529815182569
aI13
asI5
(lp171
F2.5030457760615401
aI13
asI6
(lp172
F2.51212497776651
aI13
asI7
(lp173
F2.6583257428375737
aI13
asI8
(lp174
F2.6585015556552669
aI13
asI9
(lp175
F2.4901357122387586
aI13
asI10
(lp176
F2.2929812847423729
aI13
assI19
(dp177
I1
(lp178
F1.7543411285418711
aI13
asI2
(lp179
F1.756572279671524
aI13
asI3
(lp180
F1.7645546852541485
aI13
asI4
(lp181
F1.7713959560868533
aI13
asI5
(lp182
F1.7819805551248138
aI13
asI6
(lp183
F1.785372685006505
aI13
asI7
(lp184
F1.8496003369312746
aI13
asI8
(lp185
F1.8613679914180565
aI13
asI9
(lp186
F1.8481146528344108
aI13
asI10
(lp187
F1.7592063628255699
aI13
assI20
(dp188
I1
(lp189
F0.95252419800388888
aI13
asI2
(lp190
F0.9400033610870151
aI13
asI3
(lp191
F0.94160395912078987
aI13
asI4
(lp192
F0.94336258879945367
aI13
asI5
(lp193
F0.94575129045534112
aI13
asI6
(lp194
F0.94704440200288953
aI13
asI7
(lp195
F0.96295974327895562
aI13
asI8
(lp196
F0.9654751811028307
aI13
asI9
(lp197
F0.9695927975714812
aI13
asI10
(lp198
F0.9811890896384563
aI13
assS'ITERATIONS'
p199
I5000000
s.