(dp0
I3
(dp1
I1
(lp2
F0.8006398670682306
aI13
asI2
(lp3
F1.070346103161584
aI13
asI3
(lp4
F1.1174967545250338
aI13
asI4
(lp5
F1.1601205220827533
aI13
asI5
(lp6
F1.1803699636275176
aI13
asI6
(lp7
F1.2153368068483579
aI13
asI7
(lp8
F1.0149374587254727
aI13
asI8
(lp9
F0.9066380398720993
aI13
asI9
(lp10
F0.8461028136871822
aI13
asI10
(lp11
F0.8157186159027263
aI13
assI4
(dp12
I1
(lp13
F0.7688897915007729
aI13
asI2
(lp14
F1.041094709410374
aI13
asI3
(lp15
F1.1085739857578027
aI13
asI4
(lp16
F1.1404507578767458
aI13
asI5
(lp17
F1.1686120789723349
aI13
asI6
(lp18
F1.1808143672628602
aI13
asI7
(lp19
F0.9778421047738391
aI13
asI8
(lp20
F0.9249671258650369
aI13
asI9
(lp21
F0.7941893778631419
aI13
asI10
(lp22
F0.8052038394530385
aI13
assI5
(dp23
I1
(lp24
F0.7150388482852594
aI13
asI2
(lp25
F0.9970929344589097
aI13
asI3
(lp26
F1.059006401616442
aI13
asI4
(lp27
F1.0720062968140351
aI13
asI5
(lp28
F1.1206093590534287
aI13
asI6
(lp29
F1.1533197510686994
aI13
asI7
(lp30
F0.9106156907859771
aI13
asI8
(lp31
F0.8559175500658788
aI13
asI9
(lp32
F0.8051350913634356
aI13
asI10
(lp33
F0.7757291680056771
aI13
assI6
(dp34
I1
(lp35
F0.7745236412768304
aI13
asI2
(lp36
F1.0674560216985742
aI13
asI3
(lp37
F1.0755480497573442
aI13
asI4
(lp38
F1.11092410135315
aI13
asI5
(lp39
F1.1421664352119587
aI13
asI6
(lp40
F1.1800662768326633
aI13
asI7
(lp41
F1.0689435279067712
aI13
asI8
(lp42
F0.8857949158035215
aI13
asI9
(lp43
F0.8029263912185375
aI13
asI10
(lp44
F0.7846272764821998
aI13
assI7
(dp45
I1
(lp46
F0.8363378830193353
aI13
asI2
(lp47
F1.1165866733669652
aI13
asI3
(lp48
F1.151981056510209
aI13
asI4
(lp49
F1.2097437866425773
aI13
asI5
(lp50
F1.229691034322396
aI13
asI6
(lp51
F1.22081915361553
aI13
asI7
(lp52
F1.2966929297932914
aI13
asI8
(lp53
F1.0769434128895543
aI13
asI9
(lp54
F0.8767236446994495
aI13
asI10
(lp55
F0.8828109449136712
aI13
assI8
(dp56
I1
(lp57
F1.052355548981908
aI13
asI2
(lp58
F1.2227262901255833
aI13
asI3
(lp59
F1.253527349230247
aI13
asI4
(lp60
F1.2959220601803645
aI13
asI5
(lp61
F1.293944994319886
aI13
asI6
(lp62
F1.3021280805310846
aI13
asI7
(lp63
F1.348580211642244
aI13
asI8
(lp64
F1.3039293899058855
aI13
asI9
(lp65
F1.0778772420745555
aI13
asI10
(lp66
F0.9724818015488716
aI13
assI9
(dp67
I1
(lp68
F1.1813690013357712
aI13
asI2
(lp69
F1.2860029590802142
aI13
asI3
(lp70
F1.3245319332103773
aI13
asI4
(lp71
F1.3520268279867038
aI13
asI5
(lp72
F1.3671947405388027
aI13
asI6
(lp73
F1.3703513376418854
aI13
asI7
(lp74
F1.3556005701249874
aI13
asI8
(lp75
F1.354649647524457
aI13
asI9
(lp76
F1.2815134171438083
aI13
asI10
(lp77
F1.1583166882836569
aI13
assI10
(dp78
I1
(lp79
F1.3740998746922894
aI13
asI2
(lp80
F1.4311511428695187
aI13
asI3
(lp81
F1.4510378433097988
aI13
asI4
(lp82
F1.467991298149347
aI13
asI5
(lp83
F1.4744816317647682
aI13
asI6
(lp84
F1.4900495118211368
aI13
asI7
(lp85
F1.476872131458311
aI13
asI8
(lp86
F1.4494974104522422
aI13
asI9
(lp87
F1.3970582203274908
aI13
asI10
(lp88
F1.3978833704341886
aI13
assI11
(dp89
I1
(lp90
F0.5805589057092753
aI13
asI2
(lp91
F0.8195977239663702
aI13
asI3
(lp92
F0.815523286493153
aI13
asI4
(lp93
F0.8374144990426868
aI13
asI5
(lp94
F0.8602289595885622
aI13
asI6
(lp95
F0.9379225183842792
aI13
asI7
(lp96
F0.7254327833650229
aI13
asI8
(lp97
F0.6698015246346488
aI13
asI9
(lp98
F0.6286959086117414
aI13
asI10
(lp99
F0.6032611947212754
aI13
assI12
(dp100
I1
(lp101
F0.5341717537453239
aI13
asI2
(lp102
F0.7381801764821319
aI13
asI3
(lp103
F0.7784693942584173
aI13
asI4
(lp104
F0.8059659118776459
aI13
asI5
(lp105
F0.8308818572666765
aI13
asI6
(lp106
F0.8559178343502426
aI13
asI7
(lp107
F0.6924499939645199
aI13
asI8
(lp108
F0.6229238399293539
aI13
asI9
(lp109
F0.5724669276093441
aI13
asI10
(lp110
F0.5788796158089448
aI13
assI13
(dp111
I1
(lp112
F0.5139784015310227
aI13
asI2
(lp113
F0.6874480463981675
aI13
asI3
(lp114
F0.7215273692904645
aI13
asI4
(lp115
F0.7514733287356605
aI13
asI5
(lp116
F0.7621958809449081
aI13
asI6
(lp117
F0.7825383606227323
aI13
asI7
(lp118
F0.6471241243900194
aI13
asI8
(lp119
F0.5726238641687857
aI13
asI9
(lp120
F0.5412123430108261
aI13
asI10
(lp121
F0.5191530364552136
aI13
assI14
(dp122
I1
(lp123
F0.46966428632308643
aI13
asI2
(lp124
F0.6406483385261186
aI13
asI3
(lp125
F0.6924445238514496
aI13
asI4
(lp126
F0.7111468069024653
aI13
asI5
(lp127
F0.7292988335063655
aI13
asI6
(lp128
F0.7280350799279749
aI13
asI7
(lp129
F0.5944446378018378
aI13
asI8
(lp130
F0.5744692369976356
aI13
asI9
(lp131
F0.4777300609618464
aI13
asI10
(lp132
F0.49515292776307385
aI13
assI15
(dp133
I1
(lp134
F0.4087070772883935
aI13
asI2
(lp135
F0.5845726795036962
aI13
asI3
(lp136
F0.6286428744981825
aI13
asI4
(lp137
F0.6293973390650069
aI13
asI5
(lp138
F0.6661196417307405
aI13
asI6
(lp139
F0.6850356055611028
aI13
asI7
(lp140
F0.5187647772592655
aI13
asI8
(lp141
F0.49573658420138333
aI13
asI9
(lp142
F0.47780003132580096
aI13
asI10
(lp143
F0.4558855593944774
aI13
assI16
(dp144
I1
(lp145
F0.45819801963777107
aI13
asI2
(lp146
F0.6398438351173346
aI13
asI3
(lp147
F0.6319480230139436
aI13
asI4
(lp148
F0.6544918503598653
aI13
asI5
(lp149
F0.6733409276185638
aI13
asI6
(lp150
F0.6965938275168062
aI13
asI7
(lp151
F0.66007355585874
aI13
asI8
(lp152
F0.5159383325643627
aI13
asI9
(lp153
F0.46651102066514427
aI13
asI10
(lp154
F0.45604677706377883
aI13
assI17
(dp155
I1
(lp156
F0.5080599217300765
aI13
asI2
(lp157
F0.6729379493879714
aI13
asI3
(lp158
F0.6921075286231017
aI13
asI4
(lp159
F0.7349547484580436
aI13
asI5
(lp160
F0.74271538022302
aI13
asI6
(lp161
F0.7216732756061092
aI13
asI7
(lp162
F0.8578671347117055
aI13
asI8
(lp163
F0.6867881061958145
aI13
asI9
(lp164
F0.528256660739167
aI13
asI10
(lp165
F0.5403437483437667
aI13
assI18
(dp166
I1
(lp167
F0.6996760427044252
aI13
asI2
(lp168
F0.7582633269084169
aI13
asI3
(lp169
F0.7729753354753355
aI13
asI4
(lp170
F0.7996055452085603
aI13
asI5
(lp171
F0.7871815186746178
aI13
asI6
(lp172
F0.7842093779413022
aI13
asI7
(lp173
F0.8801387763667481
aI13
asI8
(lp174
F0.8810246886196254
aI13
asI9
(lp175
F0.7062915556249505
aI13
asI10
(lp176
F0.6126651161743909
aI13
assI19
(dp177
I1
(lp178
F0.7989130434782609
aI13
asI2
(lp179
F0.7983247422680413
aI13
asI3
(lp180
F0.8203769140164899
aI13
asI4
(lp181
F0.8322784810126582
aI13
asI5
(lp182
F0.8372549019607843
aI13
asI6
(lp183
F0.8301886792452831
aI13
asI7
(lp184
F0.8604651162790697
aI13
asI8
(lp185
F0.899367088607595
aI13
asI9
(lp186
F0.8757649938800489
aI13
asI10
(lp187
F0.7711949265687583
aI13
assI20
(dp188
I1
(lp189
F0.962280701754386
aI13
asI2
(lp190
F0.9346246973365617
aI13
asI3
(lp191
F0.9375
aI13
asI4
(lp192
F0.9403266331658291
aI13
asI5
(lp193
F0.9385194479297365
aI13
asI6
(lp194
F0.9490322580645161
aI13
asI7
(lp195
F0.9634292565947242
aI13
asI8
(lp196
F0.971042471042471
aI13
asI9
(lp197
F0.9654088050314465
aI13
asI10
(lp198
F0.9816544362908606
aI13
assI21
(dp199
I1
(lp200
I0
aI13
asI2
(lp201
I0
aI13
asI3
(lp202
I0
aI13
asI4
(lp203
I0
aI13
asI5
(lp204
I0
aI13
asI6
(lp205
I0
aI13
asI7
(lp206
I0
aI13
asI8
(lp207
I0
aI13
asI9
(lp208
I0
aI13
asI10
(lp209
I0
aI13
assS'ITERATIONS'
p210
I10000
s.