(dp0
I3
(dp1
I1
(lp2
F4.7540336414552131
aI13
asI2
(lp3
F5.7259898124690292
aI13
asI3
(lp4
F6.0135485818806931
aI13
asI4
(lp5
F6.2236727929245124
aI13
asI5
(lp6
F6.3987139610743551
aI13
asI6
(lp7
F6.6500313939846949
aI13
asI7
(lp8
F6.0234981340154974
aI13
asI8
(lp9
F5.5622498648296261
aI13
asI9
(lp10
F4.9199441926009131
aI13
asI10
(lp11
F4.6678162666665637
aI13
assI4
(dp12
I1
(lp13
F4.6070261315189009
aI13
asI2
(lp14
F5.637121322136915
aI13
asI3
(lp15
F5.9228080359917685
aI13
asI4
(lp16
F6.1484693340859184
aI13
asI5
(lp17
F6.2819360328869482
aI13
asI6
(lp18
F6.5196978972886672
aI13
asI7
(lp19
F5.83369023281114
aI13
asI8
(lp20
F5.3891170755401472
aI13
asI9
(lp21
F4.7679409621341389
aI13
asI10
(lp22
F4.5239094582505155
aI13
assI5
(dp23
I1
(lp24
F4.4591257436023648
aI13
asI2
(lp25
F5.554358164115528
aI13
asI3
(lp26
F5.9218088614533251
aI13
asI4
(lp27
F6.1103622550891092
aI13
asI5
(lp28
F6.2782086999727937
aI13
asI6
(lp29
F6.441635745105275
aI13
asI7
(lp30
F5.648922178070082
aI13
asI8
(lp31
F5.2144213006525897
aI13
asI9
(lp32
F4.6135938951607578
aI13
asI10
(lp33
F4.376871854640763
aI13
assI6
(dp34
I1
(lp35
F4.2932674420569663
aI13
asI2
(lp36
F5.4571241333745464
aI13
asI3
(lp37
F5.8123288208029731
aI13
asI4
(lp38
F5.9374644012735391
aI13
asI5
(lp39
F6.1830924930968481
aI13
asI6
(lp40
F6.4140976412506827
aI13
asI7
(lp41
F5.4051757457627723
aI13
asI8
(lp42
F5.024833296404192
aI13
asI9
(lp43
F4.4550632937105776
aI13
asI10
(lp44
F4.2403156325442719
aI13
assI7
(dp45
I1
(lp46
F4.3501500231333488
aI13
asI2
(lp47
F5.800748172244707
aI13
asI3
(lp48
F5.9782162860163384
aI13
asI4
(lp49
F6.2006325172173753
aI13
asI5
(lp50
F6.396202919938256
aI13
asI6
(lp51
F6.6159763819678634
aI13
asI7
(lp52
F6.0439511649810482
aI13
asI8
(lp53
F5.0776760577067366
aI13
asI9
(lp54
F4.4748881812296473
aI13
asI10
(lp55
F4.3109275541097833
aI13
assI8
(dp56
I1
(lp57
F4.8119546366927786
aI13
asI2
(lp58
F6.2499648967305799
aI13
asI3
(lp59
F6.5075215020020343
aI13
asI4
(lp60
F6.8038566906132738
aI13
asI5
(lp61
F6.9450341583189585
aI13
asI6
(lp62
F7.0176654814746486
aI13
asI7
(lp63
F7.0834671090368051
aI13
asI8
(lp64
F6.0752192658117838
aI13
asI9
(lp65
F4.9706597873839868
aI13
asI10
(lp66
F4.826565737233472
aI13
assI9
(dp67
I1
(lp68
F5.8847170584933322
aI13
asI2
(lp69
F6.9353477312864236
aI13
asI3
(lp70
F7.1853230172920037
aI13
asI4
(lp71
F7.4318177381081281
aI13
asI5
(lp72
F7.5085001974889201
aI13
asI6
(lp73
F7.6189191139138375
aI13
asI7
(lp74
F7.616496009645898
aI13
asI8
(lp75
F7.1951504853453159
aI13
asI9
(lp76
F6.0656183023935926
aI13
asI10
(lp77
F5.5222495577297153
aI13
assI10
(dp78
I1
(lp79
F6.7866430989032382
aI13
asI2
(lp80
F7.5723866207458581
aI13
asI3
(lp81
F7.8314588240597089
aI13
asI4
(lp82
F8.0243356965869683
aI13
asI5
(lp83
F8.1433188218762087
aI13
asI6
(lp84
F8.2465365386376828
aI13
asI7
(lp85
F8.0772694200657025
aI13
asI8
(lp86
F7.8073448817940712
aI13
asI9
(lp87
F7.1695381350328082
aI13
asI10
(lp88
F6.626973670792383
aI13
assI11
(dp89
I1
(lp90
F7.2748716967886047
aI13
asI2
(lp91
F7.9812864859514203
aI13
asI3
(lp92
F8.1825564533785595
aI13
asI4
(lp93
F8.3487521025263067
aI13
asI5
(lp94
F8.4483724804437834
aI13
asI6
(lp95
F8.6030672750953823
aI13
asI7
(lp96
F8.3838155817371174
aI13
asI8
(lp97
F8.0201894870383637
aI13
asI9
(lp98
F7.43653003668725
aI13
asI10
(lp99
F7.256510387236613
aI13
assI12
(dp100
I1
(lp101
F4.0729832632001477
aI13
asI2
(lp102
F4.7975580250096961
aI13
asI3
(lp103
F4.9864809924229485
aI13
asI4
(lp104
F5.1329313313839044
aI13
asI5
(lp105
F5.2304702697506773
aI13
asI6
(lp106
F5.2932254028626184
aI13
asI7
(lp107
F5.0991102429183854
aI13
asI8
(lp108
F4.7403915429802401
aI13
asI9
(lp109
F4.2143246992281105
aI13
asI10
(lp110
F4.0019936394431026
aI13
assI13
(dp111
I1
(lp112
F3.7805804600907371
aI13
asI2
(lp113
F4.4462405846081907
aI13
asI3
(lp114
F4.6061650750474934
aI13
asI4
(lp115
F4.7348270659810607
aI13
asI5
(lp116
F4.813006154918142
aI13
asI6
(lp117
F4.8522897303479997
aI13
asI7
(lp118
F4.733093795932656
aI13
asI8
(lp119
F4.4000709815678132
aI13
asI9
(lp120
F3.9117577384667936
aI13
asI10
(lp121
F3.7146708547990155
aI13
assI14
(dp122
I1
(lp123
F3.5091523997459193
aI13
asI2
(lp124
F4.0963746328655635
aI13
asI3
(lp125
F4.2295262192668019
aI13
asI4
(lp126
F4.3365117831892439
aI13
asI5
(lp127
F4.4081281061376529
aI13
asI6
(lp128
F4.4287308331048907
aI13
asI7
(lp129
F4.3932759415620506
aI13
asI8
(lp130
F4.0841666721400882
aI13
asI9
(lp131
F3.630942240295524
aI13
asI10
(lp132
F3.4482580564513978
aI13
assI15
(dp133
I1
(lp134
F3.2612806357666146
aI13
asI2
(lp135
F3.7483412598023933
aI13
asI3
(lp136
F3.8336130647329574
aI13
asI4
(lp137
F3.9301078423025437
aI13
asI5
(lp138
F3.9849071323548819
aI13
asI6
(lp139
F4.0069801699749172
aI13
asI7
(lp140
F4.0918357629803124
aI13
asI8
(lp141
F3.7950108706151764
aI13
asI9
(lp142
F3.3715892231315583
aI13
asI10
(lp143
F3.2019539095620124
aI13
assI16
(dp144
I1
(lp145
F3.0283320189261422
aI13
asI2
(lp146
F3.4071647892141579
aI13
asI3
(lp147
F3.4528901731666926
aI13
asI4
(lp148
F3.5551078423025442
aI13
asI5
(lp149
F3.5730698943770767
aI13
asI6
(lp150
F3.5746448406336007
aI13
asI7
(lp151
F3.7995617799102908
aI13
asI8
(lp152
F3.5239386655712357
aI13
asI9
(lp153
F3.1303831929808044
aI13
asI10
(lp154
F2.9695959061196717
aI13
assI17
(dp155
I1
(lp156
F2.7594316752835306
aI13
asI2
(lp157
F2.9589527053670555
aI13
asI3
(lp158
F3.0156230924213507
aI13
asI4
(lp159
F3.098478350357067
aI13
asI5
(lp160
F3.0968794181866004
aI13
asI6
(lp161
F3.0752379604438018
aI13
asI7
(lp162
F3.347490773993131
aI13
asI8
(lp163
F3.2196491213353107
aI13
asI9
(lp164
F2.8598310457415406
aI13
asI10
(lp165
F2.6955117812892784
aI13
assI18
(dp166
I1
(lp167
F2.3868481954944269
aI13
asI2
(lp168
F2.4193185590255921
aI13
asI3
(lp169
F2.4587368648764407
aI13
asI4
(lp170
F2.4998778414512146
aI13
asI5
(lp171
F2.4907620648782358
aI13
asI6
(lp172
F2.4904278338615233
aI13
asI7
(lp173
F2.6299232064255635
aI13
asI8
(lp174
F2.6767386735741163
aI13
asI9
(lp175
F2.4732031387647964
aI13
asI10
(lp176
F2.2900025993193283
aI13
assI19
(dp177
I1
(lp178
F1.7611937452326467
aI13
asI2
(lp179
F1.732949439604603
aI13
asI3
(lp180
F1.75787691401649
aI13
asI4
(lp181
F1.7726051141784873
aI13
asI5
(lp182
F1.7757743498905207
aI13
asI6
(lp183
F1.7792209373097991
aI13
asI7
(lp184
F1.823894372873794
aI13
asI8
(lp185
F1.8704095596500658
aI13
asI9
(lp186
F1.8411737989114956
aI13
asI10
(lp187
F1.7528493628596189
aI13
assI20
(dp188
I1
(lp189
F0.96228070175438596
aI13
asI2
(lp190
F0.93462469733656173
aI13
asI3
(lp191
F0.9375
aI13
asI4
(lp192
F0.9403266331658291
aI13
asI5
(lp193
F0.93851944792973652
aI13
asI6
(lp194
F0.94903225806451608
aI13
asI7
(lp195
F0.96342925659472423
aI13
asI8
(lp196
F0.97104247104247099
aI13
asI9
(lp197
F0.96540880503144655
aI13
asI10
(lp198
F0.98165443629086058
aI13
assI21
(dp199
I1
(lp200
I0
aI13
asI2
(lp201
I0
aI13
asI3
(lp202
I0
aI13
asI4
(lp203
I0
aI13
asI5
(lp204
I0
aI13
asI6
(lp205
I0
aI13
asI7
(lp206
I0
aI13
asI8
(lp207
I0
aI13
asI9
(lp208
I0
aI13
asI10
(lp209
I0
aI13
assS'ITERATIONS'
p210
I10000
s.