(dp0
I3
(dp1
I1
(lp2
F4.67415823653426
aI13
asI2
(lp3
F5.774808298151985
aI13
asI3
(lp4
F5.9858297191368504
aI13
asI4
(lp5
F6.2217923634610868
aI13
asI5
(lp6
F6.4699262918113263
aI13
asI6
(lp7
F6.6773722320729458
aI13
asI7
(lp8
F6.029148414740602
aI13
asI8
(lp9
F5.5550476583437121
aI13
asI9
(lp10
F5.0080405897523983
aI13
asI10
(lp11
F4.7064410615400947
aI13
assI4
(dp12
I1
(lp13
F4.5298966517427184
aI13
asI2
(lp14
F5.6952160879277116
aI13
asI3
(lp15
F5.9043879188849901
aI13
asI4
(lp16
F6.1483345048412037
aI13
asI5
(lp17
F6.3949769073467948
aI13
asI6
(lp18
F6.6118992286870286
aI13
asI7
(lp19
F5.8393307100727085
aI13
asI8
(lp20
F5.3820414325400412
aI13
asI9
(lp21
F4.8529574481898745
aI13
asI10
(lp22
F4.5610549672551652
aI13
assI5
(dp23
I1
(lp24
F4.3834862796414242
aI13
asI2
(lp25
F5.6198674676255367
aI13
asI3
(lp26
F5.8360830319508086
aI13
asI4
(lp27
F6.0821559501963067
aI13
asI5
(lp28
F6.3287278399471161
aI13
asI6
(lp29
F6.5483694945914319
aI13
asI7
(lp30
F5.6542817144307032
aI13
asI8
(lp31
F5.2076960366412166
aI13
asI9
(lp32
F4.6972632541784574
aI13
asI10
(lp33
F4.4142922147368724
aI13
assI6
(dp34
I1
(lp35
F4.228270471416872
aI13
asI2
(lp36
F5.5493787807799029
aI13
asI3
(lp37
F5.770672907705241
aI13
asI4
(lp38
F6.0158503104729837
aI13
asI5
(lp39
F6.2654242265957452
aI13
asI6
(lp40
F6.4908267534713824
aI13
asI7
(lp41
F5.4117123883898905
aI13
asI8
(lp42
F5.0171605585671486
aI13
asI9
(lp43
F4.520804756747177
aI13
asI10
(lp44
F4.2616134756996802
aI13
assI7
(dp45
I1
(lp46
F4.1958919601483098
aI13
asI2
(lp47
F5.7516765355366966
aI13
asI3
(lp48
F5.9721745100890509
aI13
asI4
(lp49
F6.2107243543802753
aI13
asI5
(lp50
F6.4535885971703788
aI13
asI6
(lp51
F6.6674666651100276
aI13
asI7
(lp52
F6.0165284731230706
aI13
asI8
(lp53
F5.0933955804070425
aI13
asI9
(lp54
F4.6042912497521176
aI13
asI10
(lp55
F4.3995028518757113
aI13
assI8
(dp56
I1
(lp57
F4.7822251297582943
aI13
asI2
(lp58
F6.3242570392145359
aI13
asI3
(lp59
F6.5244308571411036
aI13
asI4
(lp60
F6.7418459530833568
aI13
asI5
(lp61
F6.9764218327978966
aI13
asI6
(lp62
F7.1663701246090774
aI13
asI7
(lp63
F7.019214535684597
aI13
asI8
(lp64
F6.0999049965421852
aI13
asI9
(lp65
F5.1204961701085061
aI13
asI10
(lp66
F4.8810818669275911
aI13
assI9
(dp67
I1
(lp68
F5.7197853870340127
aI13
asI2
(lp69
F6.9878444349272995
aI13
asI3
(lp70
F7.1625126817082325
aI13
asI4
(lp71
F7.3583299157373911
aI13
asI5
(lp72
F7.5732797690333422
aI13
asI6
(lp73
F7.7353599770791455
aI13
asI7
(lp74
F7.6339143993359047
aI13
asI8
(lp75
F7.1627817621249097
aI13
asI9
(lp76
F6.1764462346877007
aI13
asI10
(lp77
F5.5489517181673058
aI13
assI10
(dp78
I1
(lp79
F6.7249726265227698
aI13
asI2
(lp80
F7.6700865966700231
aI13
asI3
(lp81
F7.8291970574995595
aI13
asI4
(lp82
F7.9996165632295213
aI13
asI5
(lp83
F8.189640191344564
aI13
asI6
(lp84
F8.3322126384190707
aI13
asI7
(lp85
F8.1641279045316857
aI13
asI8
(lp86
F7.788607626962107
aI13
asI9
(lp87
F7.2557692108511924
aI13
asI10
(lp88
F6.6813090672170672
aI13
assI11
(dp89
I1
(lp90
F7.1752500382840712
aI13
asI2
(lp91
F8.0389978388835441
aI13
asI3
(lp92
F8.184641762098515
aI13
asI4
(lp93
F8.3456042277656834
aI13
asI5
(lp94
F8.5182062687021691
aI13
asI6
(lp95
F8.6583609954168939
aI13
asI7
(lp96
F8.3907355209547916
aI13
asI8
(lp97
F7.9951767598921846
aI13
asI9
(lp98
F7.5270093470743458
aI13
asI10
(lp99
F7.2889682449643471
aI13
assI12
(dp100
I1
(lp101
F4.0076821811667207
aI13
asI2
(lp102
F4.8462029159351765
aI13
asI3
(lp103
F4.9769848929692779
aI13
asI4
(lp104
F5.1175718361053848
aI13
asI5
(lp105
F5.2613421207422943
aI13
asI6
(lp106
F5.3779033307168636
aI13
asI7
(lp107
F5.1068407662995909
aI13
asI8
(lp108
F4.7326773766481169
aI13
asI9
(lp109
F4.2866569105037922
aI13
asI10
(lp110
F4.0334152581950171
aI13
assI13
(dp111
I1
(lp112
F3.7199572418853917
aI13
asI2
(lp113
F4.4901230997758228
aI13
asI3
(lp114
F4.6003198335624793
aI13
asI4
(lp115
F4.718684898511083
aI13
asI5
(lp116
F4.8403618388288896
aI13
asI6
(lp117
F4.9389888556487458
aI13
asI7
(lp118
F4.7402669030383642
aI13
asI8
(lp119
F4.3929125851412234
aI13
asI9
(lp120
F3.9789171609134688
aI13
asI10
(lp121
F3.7438368875423587
aI13
assI14
(dp122
I1
(lp123
F3.4528823713994723
aI13
asI2
(lp124
F4.1333103614403157
aI13
asI3
(lp125
F4.2245160896595264
aI13
asI4
(lp126
F4.3195264938270777
aI13
asI5
(lp127
F4.420268663835377
aI13
asI6
(lp128
F4.4989145660430996
aI13
asI7
(lp129
F4.3999342269732589
aI13
asI8
(lp130
F4.0775220749688952
aI13
asI9
(lp131
F3.6932492454059265
aI13
asI10
(lp132
F3.4750480006646058
aI13
assI15
(dp133
I1
(lp134
F3.2072787461367933
aI13
asI2
(lp135
F3.7766999142903841
aI13
asI3
(lp136
F3.8477432613664604
aI13
asI4
(lp137
F3.9199666941702258
aI13
asI5
(lp138
F4.0002726362272538
aI13
asI6
(lp139
F4.0590148424714583
aI13
asI7
(lp140
F4.0976143946822692
aI13
asI8
(lp141
F3.7891656215881091
aI13
asI9
(lp142
F3.43285424027719
aI13
asI10
(lp143
F3.2268648293581506
aI13
assI16
(dp144
I1
(lp145
F2.9781874071270229
aI13
asI2
(lp146
F3.4208451516309029
aI13
asI3
(lp147
F3.4712188673479041
aI13
asI4
(lp148
F3.5218338750096896
aI13
asI5
(lp149
F3.581255867934571
aI13
asI6
(lp150
F3.6192667900928734
aI13
asI7
(lp151
F3.8049276522049631
aI13
asI8
(lp152
F3.5185109343318155
aI13
asI9
(lp153
F3.1876503659716766
aI13
asI10
(lp154
F2.9963744844039968
aI13
assI17
(dp155
I1
(lp156
F2.7357745748354345
aI13
asI2
(lp157
F2.9996972786391103
aI13
asI3
(lp158
F3.0306036425114158
aI13
asI4
(lp159
F3.0618194203155027
aI13
asI5
(lp160
F3.1026823036737965
aI13
asI6
(lp161
F3.1235131852483593
aI13
asI7
(lp162
F3.3576656098205233
aI13
asI8
(lp163
F3.210442344640553
aI13
asI9
(lp164
F2.8983980237243605
aI13
asI10
(lp165
F2.7051353479311264
aI13
assI18
(dp166
I1
(lp167
F2.3478546343188156
aI13
asI2
(lp168
F2.446111236948679
aI13
asI3
(lp169
F2.4624286955436712
aI13
asI4
(lp170
F2.4793529815182569
aI13
asI5
(lp171
F2.5030457760615401
aI13
asI6
(lp172
F2.51212497776651
aI13
asI7
(lp173
F2.6583257428375737
aI13
asI8
(lp174
F2.6585015556552669
aI13
asI9
(lp175
F2.4901357122387586
aI13
asI10
(lp176
F2.2929812847423729
aI13
assI19
(dp177
I1
(lp178
F1.7543411285418711
aI13
asI2
(lp179
F1.756572279671524
aI13
asI3
(lp180
F1.7645546852541485
aI13
asI4
(lp181
F1.7713959560868533
aI13
asI5
(lp182
F1.7819805551248138
aI13
asI6
(lp183
F1.785372685006505
aI13
asI7
(lp184
F1.8496003369312746
aI13
asI8
(lp185
F1.8613679914180565
aI13
asI9
(lp186
F1.8481146528344108
aI13
asI10
(lp187
F1.7592063628255699
aI13
assI20
(dp188
I1
(lp189
F0.95252419800388888
aI13
asI2
(lp190
F0.9400033610870151
aI13
asI3
(lp191
F0.94160395912078987
aI13
asI4
(lp192
F0.94336258879945367
aI13
asI5
(lp193
F0.94575129045534112
aI13
asI6
(lp194
F0.94704440200288953
aI13
asI7
(lp195
F0.96295974327895562
aI13
asI8
(lp196
F0.9654751811028307
aI13
asI9
(lp197
F0.9695927975714812
aI13
asI10
(lp198
F0.9811890896384563
aI13
assI21
(dp199
I1
(lp200
I0
aI13
asI2
(lp201
I0
aI13
asI3
(lp202
I0
aI13
asI4
(lp203
I0
aI13
asI5
(lp204
I0
aI13
asI6
(lp205
I0
aI13
asI7
(lp206
I0
aI13
asI8
(lp207
I0
aI13
asI9
(lp208
I0
aI13
asI10
(lp209
I0
aI13
assS'ITERATIONS'
p210
I5000000
s.