(dp0
I3
(dp1
I1
S'Hit'
p2
sI2
g2
sI3
g2
sI4
g2
sI5
g2
sI6
g2
sI7
g2
sI8
g2
sI9
g2
sI10
g2
ssI4
(dp3
I1
g2
sI2
g2
sI3
g2
sI4
g2
sI5
g2
sI6
g2
sI7
g2
sI8
g2
sI9
g2
sI10
g2
ssI5
(dp4
I1
g2
sI2
g2
sI3
g2
sI4
g2
sI5
g2
sI6
g2
sI7
g2
sI8
g2
sI9
g2
sI10
g2
ssI6
(dp5
I1
g2
sI2
g2
sI3
g2
sI4
g2
sI5
g2
sI6
g2
sI7
g2
sI8
g2
sI9
g2
sI10
g2
ssI7
(dp6
I1
g2
sI2
g2
sI3
g2
sI4
g2
sI5
g2
sI6
g2
sI7
g2
sI8
g2
sI9
g2
sI10
g2
ssI8
(dp7
I1
g2
sI2
g2
sI3
g2
sI4
g2
sI5
g2
sI6
g2
sI7
g2
sI8
g2
sI9
g2
sI10
g2
ssI9
(dp8
I1
g2
sI2
g2
sI3
S'Double'
p9
sI4
g9
sI5
g9
sI6
g9
sI7
g2
sI8
g2
sI9
g2
sI10
g2
ssI10
(dp10
I1
g2
sI2
g9
sI3
g9
sI4
g9
sI5
g9
sI6
g9
sI7
g9
sI8
g9
sI9
g9
sI10
g2
ssI11
(dp11
I1
g9
sI2
g9
sI3
g9
sI4
g9
sI5
g9
sI6
g9
sI7
g9
sI8
g9
sI9
g9
sI10
g9
ssI12
(dp12
I1
g2
sI2
S'Stay'
p13
sI3
g2
sI4
g2
sI5
g2
sI6
g13
sI7
g2
sI8
g2
sI9
g2
sI10
g2
ssI13
(dp14
I1
g2
sI2
g13
sI3
g13
sI4
g13
sI5
g13
sI6
g13
sI7
g2
sI8
g2
sI9
g2
sI10
g2
ssI14
(dp15
I1
g2
sI2
g13
sI3
g13
sI4
g13
sI5
g13
sI6
g13
sI7
g2
sI8
g2
sI9
g2
sI10
g2
ssI15
(dp16
I1
g2
sI2
g13
sI3
g13
sI4
g13
sI5
g13
sI6
g13
sI7
g2
sI8
g2
sI9
g2
sI10
g2
ssI16
(dp17
I1
g2
sI2
g13
sI3
g13
sI4
g13
sI5
g13
sI6
g13
sI7
g2
sI8
g2
sI9
g13
sI10
g13
ssI17
(dp18
I1
g13
sI2
g13
sI3
g13
sI4
g13
sI5
g13
sI6
g13
sI7
g13
sI8
g13
sI9
g13
sI10
g13
ssI18
(dp19
I1
g13
sI2
g13
sI3
g13
sI4
g13
sI5
g13
sI6
g13
sI7
g13
sI8
g13
sI9
g13
sI10
g13
ssI19
(dp20
I1
g13
sI2
g13
sI3
g13
sI4
g13
sI5
g13
sI6
g13
sI7
g13
sI8
g13
sI9
g13
sI10
g13
ssI20
(dp21
I1
g13
sI2
g13
sI3
g13
sI4
g13
sI5
g13
sI6
g13
sI7
g13
sI8
g13
sI9
g13
sI10
g13
ssS'ITERATIONS'
p22
I10000
s.