(dp0
I4
(dp1
I1
(lp2
F2.6161405976581875
aI13
asI2
(lp3
F4.6369108504239396
aI13
asI3
(lp4
F4.894876625906611
aI13
asI4
(lp5
F5.1827369752888117
aI13
asI5
(lp6
F5.4572231294691438
aI13
asI6
(lp7
F5.7129461135001023
aI13
asI7
(lp8
F3.4123495306611589
aI13
asI8
(lp9
F3.1716954127698451
aI13
asI9
(lp10
F2.9848496196205732
aI13
asI10
(lp11
F2.9929237121846102
aI13
assI5
(dp12
I1
(lp13
F2.6142998604908443
aI13
asI2
(lp14
F4.6359704883931876
aI13
asI3
(lp15
F4.8974998807649781
aI13
asI4
(lp16
F5.1839017072406133
aI13
asI5
(lp17
F5.4574909887618963
aI13
asI6
(lp18
F5.7132531523144667
aI13
asI7
(lp19
F3.4051220586134532
aI13
asI8
(lp20
F3.1676343927687776
aI13
asI9
(lp21
F2.9873548539786765
aI13
asI10
(lp22
F2.994704421093227
aI13
assI6
(dp23
I1
(lp24
F2.6613210663526101
aI13
asI2
(lp25
F4.6980115308195636
aI13
asI3
(lp26
F4.9596321874348943
aI13
asI4
(lp27
F5.2411502668683045
aI13
asI5
(lp28
F5.5138171336231503
aI13
asI6
(lp29
F5.7694025876198758
aI13
asI7
(lp30
F3.5936474231859403
aI13
asI8
(lp31
F3.2318105187999437
aI13
asI9
(lp32
F3.0432813721397323
aI13
asI10
(lp33
F3.0549664496636768
aI13
assI7
(dp34
I1
(lp35
F2.9690827466351157
aI13
asI2
(lp36
F5.0918216957436302
aI13
asI3
(lp37
F5.3434735103482094
aI13
asI4
(lp38
F5.6102189568092165
aI13
asI5
(lp39
F5.8724557464164384
aI13
asI6
(lp40
F6.1092095720458905
aI13
asI7
(lp41
F4.5865189523506462
aI13
asI8
(lp42
F3.7352798087250303
aI13
asI9
(lp43
F3.4020101968485603
aI13
asI10
(lp44
F3.4195240005856498
aI13
assI8
(dp45
I1
(lp46
F3.7974728449660793
aI13
asI2
(lp47
F5.8222793266086805
aI13
asI3
(lp48
F6.0470756150575227
aI13
asI4
(lp49
F6.2881724438262578
aI13
asI5
(lp50
F6.536257588519585
aI13
asI6
(lp51
F6.7447838778365821
aI13
asI7
(lp52
F5.8897186395149621
aI13
asI8
(lp53
F5.0189436718062694
aI13
asI9
(lp54
F4.1721074125710382
aI13
asI10
(lp55
F4.0854051918065375
aI13
assI9
(dp56
I1
(lp57
F5.014796229480436
aI13
asI2
(lp58
F6.6905475357120432
aI13
asI3
(lp59
F6.8831311855986854
aI13
asI4
(lp60
F7.0944038653661252
aI13
asI5
(lp61
F7.3172435382579293
aI13
asI6
(lp62
F7.4894528084051952
aI13
asI7
(lp63
F6.8418092191507389
aI13
asI8
(lp64
F6.4067054776449393
aI13
asI9
(lp65
F5.5222143438044409
aI13
asI10
(lp66
F4.9978713949850757
aI13
assI10
(dp67
I1
(lp68
F6.3898485160012477
aI13
asI2
(lp69
F7.6545755687250487
aI13
asI3
(lp70
F7.8239892687100978
aI13
asI4
(lp71
F7.9996165632295213
aI13
asI5
(lp72
F8.189640191344564
aI13
asI6
(lp73
F8.3322126384190707
aI13
asI7
(lp74
F7.7759900066370227
aI13
asI8
(lp75
F7.4254060283499115
aI13
asI9
(lp76
F6.9715028153139107
aI13
asI10
(lp77
F6.4824463102912828
aI13
assI11
(dp78
I1
(lp79
F6.8419703183989693
aI13
asI2
(lp80
F8.0248788962325683
aI13
asI3
(lp81
F8.1799489676723933
aI13
asI4
(lp82
F8.3456042277656834
aI13
asI5
(lp83
F8.5182062687021691
aI13
asI6
(lp84
F8.6583609954168939
aI13
asI7
(lp85
F8.004947455516934
aI13
asI8
(lp86
F7.6341531407127254
aI13
asI9
(lp87
F7.2447156422395649
aI13
asI10
(lp88
F7.0919617596453097
aI13
assI12
(dp89
I1
(lp90
F4.5890858948922357
aI13
asI2
(lp91
F6.2808665040805574
aI13
asI3
(lp92
F6.4895936823322611
aI13
asI4
(lp93
F6.7093503371531353
aI13
asI5
(lp94
F6.9397832271176982
aI13
asI6
(lp95
F7.1352011654823091
aI13
asI7
(lp96
F5.9019779891766939
aI13
asI8
(lp97
F5.4692397591848909
aI13
asI9
(lp98
F5.0231664424922622
aI13
asI10
(lp99
F4.8406955206029041
aI13
assI13
(dp100
I1
(lp101
F4.5907914669871364
aI13
asI2
(lp102
F6.2731082614495879
aI13
asI3
(lp103
F6.4851322685304149
aI13
asI4
(lp104
F6.7121772741502257
aI13
asI5
(lp105
F6.94389324307636
aI13
asI6
(lp106
F7.1339712146125773
aI13
asI7
(lp107
F5.9023473663358512
aI13
asI8
(lp108
F5.4707943895020694
aI13
asI9
(lp109
F5.0251553699812552
aI13
asI10
(lp110
F4.83745062290419
aI13
assI14
(dp111
I1
(lp112
F4.5863884158623689
aI13
asI2
(lp113
F6.2753070279780427
aI13
asI3
(lp114
F6.4825483220188822
aI13
asI4
(lp115
F6.7129916754193388
aI13
asI5
(lp116
F6.9412319223166827
aI13
asI6
(lp117
F7.1374506582251627
aI13
asI7
(lp118
F5.9067452984452213
aI13
asI8
(lp119
F5.4712563218829153
aI13
asI9
(lp120
F5.0257357356945755
aI13
asI10
(lp121
F4.8392434951083283
aI13
assI15
(dp122
I1
(lp123
F4.5839848537176051
aI13
asI2
(lp124
F6.2747001544213159
aI13
asI3
(lp125
F6.4854555751892224
aI13
asI4
(lp126
F6.7141958603378766
aI13
asI5
(lp127
F6.940940480160517
aI13
asI6
(lp128
F7.1369269601231533
aI13
asI7
(lp129
F5.9000318595296246
aI13
asI8
(lp130
F5.4678081869609532
aI13
asI9
(lp131
F5.0268030411746656
aI13
asI10
(lp132
F4.8408889089676155
aI13
assI16
(dp133
I1
(lp134
F4.5903689422579967
aI13
asI2
(lp135
F6.272433100949967
aI13
asI3
(lp136
F6.4847102723656924
aI13
asI4
(lp137
F6.7099149188489324
aI13
asI5
(lp138
F6.9380027022141935
aI13
asI6
(lp139
F7.1364719465439777
aI13
asI7
(lp140
F5.9026603353382505
aI13
asI8
(lp141
F5.4671893187075904
aI13
asI9
(lp142
F5.0236863089431845
aI13
asI10
(lp143
F4.8397539250445023
aI13
assI17
(dp144
I1
(lp145
F4.7116362212620659
aI13
asI2
(lp146
F6.4683124319469005
aI13
asI3
(lp147
F6.6769827648194866
aI13
asI4
(lp148
F6.8955598254498822
aI13
asI5
(lp149
F7.1166730901184678
aI13
asI6
(lp150
F7.3044886039417669
aI13
asI7
(lp151
F6.4578543528333876
aI13
asI8
(lp152
F5.6619333664780198
aI13
asI9
(lp153
F5.203694276267071
aI13
asI10
(lp154
F5.0221119001485546
aI13
assI18
(dp155
I1
(lp156
F5.148157545937158
aI13
asI2
(lp157
F6.8656269380428183
aI13
asI3
(lp158
F7.059661931213256
aI13
asI4
(lp159
F7.2629157777590585
aI13
asI5
(lp160
F7.4798619801729149
aI13
asI6
(lp161
F7.6513924118537728
aI13
asI7
(lp162
F7.2140878266289139
aI13
asI8
(lp163
F6.3935499643600924
aI13
asI9
(lp164
F5.5607241839819253
aI13
asI10
(lp165
F5.3848566802961999
aI13
assI19
(dp166
I1
(lp167
F5.7649382417181352
aI13
asI2
(lp168
F7.2734856848029894
aI13
asI3
(lp169
F7.4487591211785915
aI13
asI4
(lp170
F7.6393875376615323
aI13
asI5
(lp171
F7.8441480601463232
aI13
asI6
(lp172
F7.9974846676882407
aI13
asI7
(lp173
F7.542244443398963
aI13
asI8
(lp174
F7.1291282901158635
aI13
asI9
(lp175
F6.2620004277381653
aI13
asI10
(lp176
F5.7497192564803523
aI13
assI20
(dp177
I1
(lp178
F6.3898485160012477
aI13
asI2
(lp179
F7.6545755687250487
aI13
asI3
(lp180
F7.8239892687100978
aI13
asI4
(lp181
F7.9996165632295213
aI13
asI5
(lp182
F8.189640191344564
aI13
asI6
(lp183
F8.3322126384190707
aI13
asI7
(lp184
F7.7759900066370227
aI13
asI8
(lp185
F7.4254060283499115
aI13
asI9
(lp186
F6.9715028153139107
aI13
asI10
(lp187
F6.4824463102912828
aI13
assI21
(dp188
I1
(lp189
I0
aI1
asI2
(lp190
I0
aI1
asI3
(lp191
I0
aI1
asI4
(lp192
I0
aI1
asI5
(lp193
I0
aI1
asI6
(lp194
I0
aI1
asI7
(lp195
I0
aI1
asI8
(lp196
I0
aI1
asI9
(lp197
I0
aI1
asI10
(lp198
I0
aI1
assS'ITERATIONS'
p199
I5000000
s.