(dp0
I4
(dp1
I1
S'Hit'
p2
sI2
g2
sI3
g2
sI4
g2
sI5
g2
sI6
g2
sI7
g2
sI8
g2
sI9
g2
sI10
g2
ssI5
(dp3
I1
g2
sI2
g2
sI3
g2
sI4
g2
sI5
g2
sI6
g2
sI7
g2
sI8
g2
sI9
g2
sI10
g2
ssI6
(dp4
I1
g2
sI2
g2
sI3
g2
sI4
g2
sI5
g2
sI6
g2
sI7
g2
sI8
g2
sI9
g2
sI10
g2
ssI7
(dp5
I1
g2
sI2
g2
sI3
g2
sI4
g2
sI5
g2
sI6
g2
sI7
g2
sI8
g2
sI9
g2
sI10
g2
ssI8
(dp6
I1
g2
sI2
g2
sI3
g2
sI4
g2
sI5
g2
sI6
g2
sI7
g2
sI8
g2
sI9
g2
sI10
g2
ssI9
(dp7
I1
g2
sI2
g2
sI3
g2
sI4
g2
sI5
g2
sI6
S'Double'
p8
sI7
g2
sI8
g2
sI9
g2
sI10
g2
ssI10
(dp9
I1
g2
sI2
g8
sI3
g8
sI4
g8
sI5
g8
sI6
g8
sI7
g8
sI8
g2
sI9
g2
sI10
g2
ssI11
(dp10
I1
g2
sI2
g8
sI3
g8
sI4
g8
sI5
g8
sI6
g8
sI7
g8
sI8
g2
sI9
g2
sI10
g2
ssI12
(dp11
I1
g2
sI2
g2
sI3
g2
sI4
g2
sI5
g2
sI6
g8
sI7
g2
sI8
g2
sI9
g2
sI10
g2
ssI13
(dp12
I1
g2
sI2
g2
sI3
g2
sI4
g2
sI5
g2
sI6
g8
sI7
g2
sI8
g2
sI9
g2
sI10
g2
ssI14
(dp13
I1
g2
sI2
g2
sI3
g2
sI4
g2
sI5
g8
sI6
g8
sI7
g2
sI8
g2
sI9
g2
sI10
g2
ssI15
(dp14
I1
g2
sI2
g2
sI3
g2
sI4
g8
sI5
g8
sI6
g8
sI7
g2
sI8
g2
sI9
g2
sI10
g2
ssI16
(dp15
I1
g2
sI2
g2
sI3
g2
sI4
g8
sI5
g8
sI6
g8
sI7
g2
sI8
g2
sI9
g2
sI10
g2
ssI17
(dp16
I1
g2
sI2
g2
sI3
g8
sI4
g8
sI5
g8
sI6
g8
sI7
g2
sI8
g2
sI9
g2
sI10
g2
ssI18
(dp17
I1
g2
sI2
g8
sI3
g8
sI4
g8
sI5
g8
sI6
g8
sI7
S'Stay'
p18
sI8
g18
sI9
g2
sI10
g2
ssI19
(dp19
I1
g18
sI2
g18
sI3
g18
sI4
g18
sI5
g18
sI6
g8
sI7
g18
sI8
g18
sI9
g18
sI10
g18
ssI20
(dp20
I1
g18
sI2
g18
sI3
g18
sI4
g18
sI5
g18
sI6
g18
sI7
g18
sI8
g18
sI9
g18
sI10
g18
ssI21
(dp21
I1
g18
sI2
g18
sI3
g18
sI4
g18
sI5
g18
sI6
g18
sI7
g18
sI8
g18
sI9
g18
sI10
g18
ssS'ITERATIONS'
p22
I5000000
s.