(dp0
I4
(dp1
I1
(lp2
F2.6150737892681462
aI13
asI2
(lp3
F4.6377142401781652
aI13
asI3
(lp4
F4.8991383190915849
aI13
asI4
(lp5
F5.1797844083568361
aI13
asI5
(lp6
F5.4589600135712208
aI13
asI6
(lp7
F5.7082200425440668
aI13
asI7
(lp8
F3.4043538342531248
aI13
asI8
(lp9
F3.1676079260537651
aI13
asI9
(lp10
F2.9798767148666312
aI13
asI10
(lp11
F2.9931241707778908
aI13
assI5
(dp12
I1
(lp13
F2.6165824733821652
aI13
asI2
(lp14
F4.6376791186998414
aI13
asI3
(lp15
F4.8995421908209096
aI13
asI4
(lp16
F5.1807538977683398
aI13
asI5
(lp17
F5.4575021203418999
aI13
asI6
(lp18
F5.7095488294061081
aI13
asI7
(lp19
F3.4045825503566403
aI13
asI8
(lp20
F3.1676575429352551
aI13
asI9
(lp21
F2.9793749001977026
aI13
asI10
(lp22
F2.9924171548579461
aI13
assI6
(dp23
I1
(lp24
F2.6539271548988173
aI13
asI2
(lp25
F4.7024392621320024
aI13
asI3
(lp26
F4.9616763246326174
aI13
asI4
(lp27
F5.2410887469175433
aI13
asI5
(lp28
F5.5143497478736929
aI13
asI6
(lp29
F5.7664421108318145
aI13
asI7
(lp30
F3.5881337950199623
aI13
asI8
(lp31
F3.2320221465391255
aI13
asI9
(lp32
F3.0394790566317926
aI13
asI10
(lp33
F3.0530463431546706
aI13
assI7
(dp34
I1
(lp35
F2.9641873986066591
aI13
asI2
(lp36
F5.0967204704443523
aI13
asI3
(lp37
F5.3459963150029708
aI13
asI4
(lp38
F5.6098420159785647
aI13
asI5
(lp39
F5.8741152409044659
aI13
asI6
(lp40
F6.112386230418716
aI13
asI7
(lp41
F4.5789161442652704
aI13
asI8
(lp42
F3.7326375111798722
aI13
asI9
(lp43
F3.4009848235596118
aI13
asI10
(lp44
F3.4172302387534534
aI13
assI8
(dp45
I1
(lp46
F3.7925153043786692
aI13
asI2
(lp47
F5.8249786612119854
aI13
asI3
(lp48
F6.0542102221764704
aI13
asI4
(lp49
F6.2882309359192678
aI13
asI5
(lp50
F6.5376213962909429
aI13
asI6
(lp51
F6.744188498859546
aI13
asI7
(lp52
F5.8887618585879205
aI13
asI8
(lp53
F5.0212575167668714
aI13
asI9
(lp54
F4.1696678634071178
aI13
asI10
(lp55
F4.0843662770445004
aI13
assI9
(dp56
I1
(lp57
F5.0163330635753045
aI13
asI2
(lp58
F6.6858652690417504
aI13
asI3
(lp59
F6.8856920129598365
aI13
asI4
(lp60
F7.0914035084617746
aI13
asI5
(lp61
F7.3141819654971396
aI13
asI6
(lp62
F7.4875678967259649
aI13
asI7
(lp63
F6.8383117029238081
aI13
asI8
(lp64
F6.4049576794183825
aI13
asI9
(lp65
F5.5245405374988588
aI13
asI10
(lp66
F4.9954972109419877
aI13
assI10
(dp67
I1
(lp68
F6.3844515348314266
aI13
asI2
(lp69
F7.6566445742397962
aI13
asI3
(lp70
F7.823264210141601
aI13
asI4
(lp71
F7.9955595196711329
aI13
asI5
(lp72
F8.1858586204539883
aI13
asI6
(lp73
F8.3340799066437032
aI13
asI7
(lp74
F7.7747919772935514
aI13
asI8
(lp75
F7.4232724726120036
aI13
asI9
(lp76
F6.9734187583491343
aI13
asI10
(lp77
F6.4802612890188982
aI13
assI11
(dp78
I1
(lp79
F6.8382843363904886
aI13
asI2
(lp80
F8.0255939450687492
aI13
asI3
(lp81
F8.1815759833645743
aI13
asI4
(lp82
F8.3434962104702439
aI13
asI5
(lp83
F8.5168482132650496
aI13
asI6
(lp84
F8.6580230830989588
aI13
asI7
(lp85
F8.0037206995368564
aI13
asI8
(lp86
F7.6316743646345699
aI13
asI9
(lp87
F7.2448197677298527
aI13
asI10
(lp88
F7.0897649894536299
aI13
assI12
(dp89
I1
(lp90
F4.5853033005221455
aI13
asI2
(lp91
F6.2769585723902095
aI13
asI3
(lp92
F6.4878604888780993
aI13
asI4
(lp93
F6.7072608958903359
aI13
asI5
(lp94
F6.940618815555184
aI13
asI6
(lp95
F7.1357846202422692
aI13
asI7
(lp96
F5.901877740353175
aI13
asI8
(lp97
F5.4657181448836027
aI13
asI9
(lp98
F5.0238714371712971
aI13
asI10
(lp99
F4.836765453190254
aI13
assI13
(dp100
I1
(lp101
F4.587239990744866
aI13
asI2
(lp102
F6.2752491062803113
aI13
asI3
(lp103
F6.4863236331652985
aI13
asI4
(lp104
F6.7080994790281201
aI13
asI5
(lp105
F6.9394411989086375
aI13
asI6
(lp106
F7.1350690697539383
aI13
asI7
(lp107
F5.8994540825873969
aI13
asI8
(lp108
F5.4651379492983265
aI13
asI9
(lp109
F5.02381961236728
aI13
asI10
(lp110
F4.8371997982318806
aI13
assI14
(dp111
I1
(lp112
F4.5848702403972368
aI13
asI2
(lp113
F6.2754955961250598
aI13
asI3
(lp114
F6.4863890289823347
aI13
asI4
(lp115
F6.7086430526841863
aI13
asI5
(lp116
F6.9404589048643244
aI13
asI6
(lp117
F7.1325171534489789
aI13
asI7
(lp118
F5.9001872172617258
aI13
asI8
(lp119
F5.4679296109494144
aI13
asI9
(lp120
F5.0237943378307772
aI13
asI10
(lp121
F4.8374477182610569
aI13
assI15
(dp122
I1
(lp123
F4.5876652060932619
aI13
asI2
(lp124
F6.2757382320171633
aI13
asI3
(lp125
F6.4870693563952546
aI13
asI4
(lp126
F6.709320065377991
aI13
asI5
(lp127
F6.9395129853526489
aI13
asI6
(lp128
F7.1339864530586343
aI13
asI7
(lp129
F5.9003004116650057
aI13
asI8
(lp130
F5.4674651926572704
aI13
asI9
(lp131
F5.0233907581945809
aI13
asI10
(lp132
F4.8369471286423389
aI13
assI16
(dp133
I1
(lp134
F4.5837447899866781
aI13
asI2
(lp135
F6.2752988468200011
aI13
asI3
(lp136
F6.4852879164157082
aI13
asI4
(lp137
F6.7080072132593598
aI13
asI5
(lp138
F6.9371111100005125
aI13
asI6
(lp139
F7.1336820389376889
aI13
asI7
(lp140
F5.8995185676422457
aI13
asI8
(lp141
F5.4674093835977491
aI13
asI9
(lp142
F5.023059116189974
aI13
asI10
(lp143
F4.8366591924641593
aI13
assI17
(dp144
I1
(lp145
F4.7085196814018566
aI13
asI2
(lp146
F6.4716383875443944
aI13
asI3
(lp147
F6.6771566325477396
aI13
asI4
(lp148
F6.8926692431648178
aI13
asI5
(lp149
F7.1165679825780472
aI13
asI6
(lp150
F7.3070514332354479
aI13
asI7
(lp151
F6.4520778546009083
aI13
asI8
(lp152
F5.6592068554373647
aI13
asI9
(lp153
F5.205227600655161
aI13
asI10
(lp154
F5.0188360816626352
aI13
assI18
(dp155
I1
(lp156
F5.1428330199177781
aI13
asI2
(lp157
F6.868688539938467
aI13
asI3
(lp158
F7.0639960083837918
aI13
asI4
(lp159
F7.2620222970096844
aI13
asI5
(lp160
F7.4795983552805669
aI13
asI6
(lp161
F7.6518564648508436
aI13
asI7
(lp162
F7.21532209906281
aI13
asI8
(lp163
F6.3946976175139758
aI13
asI9
(lp164
F5.5601686957721226
aI13
asI10
(lp165
F5.3826892642244974
aI13
assI19
(dp166
I1
(lp167
F5.7670290622381053
aI13
asI2
(lp168
F7.2695796245581707
aI13
asI3
(lp169
F7.4501226585993736
aI13
asI4
(lp170
F7.6360110179529936
aI13
asI5
(lp171
F7.8406160457043432
aI13
asI6
(lp172
F7.9954113083231917
aI13
asI7
(lp173
F7.5396946964872464
aI13
asI8
(lp174
F7.1262429190142402
aI13
asI9
(lp175
F6.2648276039256823
aI13
asI10
(lp176
F5.7464118001333935
aI13
assI20
(dp177
I1
(lp178
F6.3844515348314266
aI13
asI2
(lp179
F7.6566445742397962
aI13
asI3
(lp180
F7.823264210141601
aI13
asI4
(lp181
F7.9955595196711329
aI13
asI5
(lp182
F8.1858586204539883
aI13
asI6
(lp183
F8.3340799066437032
aI13
asI7
(lp184
F7.7747919772935514
aI13
asI8
(lp185
F7.4232724726120036
aI13
asI9
(lp186
F6.9734187583491343
aI13
asI10
(lp187
F6.4802612890188982
aI13
assI21
(dp188
I1
(lp189
I0
aI1
asI2
(lp190
I0
aI1
asI3
(lp191
I0
aI1
asI4
(lp192
I0
aI1
asI5
(lp193
I0
aI1
asI6
(lp194
I0
aI1
asI7
(lp195
I0
aI1
asI8
(lp196
I0
aI1
asI9
(lp197
I0
aI1
asI10
(lp198
I0
aI1
assS'ITERATIONS'
p199
I20000000
s.