(dp0
I3
(dp1
I1
(lp2
F6.2988263361331427
aI13
asI2
(lp3
F7.2772106754619177
aI13
asI3
(lp4
F7.4416011467853167
aI13
asI4
(lp5
F7.6240767017410294
aI13
asI5
(lp6
F7.8281810321044434
aI13
asI6
(lp7
F7.9847240511987643
aI13
asI7
(lp8
F7.8676504453848262
aI13
asI8
(lp9
F7.3822277681300648
aI13
asI9
(lp10
F6.7197306800071424
aI13
asI10
(lp11
F6.2522200317202401
aI13
assI4
(dp12
I1
(lp13
F6.2029112395748189
aI13
asI2
(lp14
F7.1994916768773276
aI13
asI3
(lp15
F7.3651728669971979
aI13
asI4
(lp16
F7.5519480151998621
aI13
asI5
(lp17
F7.7572944838795745
aI13
asI6
(lp18
F7.9182719144931575
aI13
asI7
(lp19
F7.7474051266644164
aI13
asI8
(lp20
F7.2692129470912867
aI13
asI9
(lp21
F6.6173588338677547
aI13
asI10
(lp22
F6.1584059917614136
aI13
assI5
(dp23
I1
(lp24
F6.098466799088377
aI13
asI2
(lp25
F7.1187607314665069
aI13
asI3
(lp26
F7.2881638873372108
aI13
asI4
(lp27
F7.4779637893074753
aI13
asI5
(lp28
F7.6848846624229434
aI13
asI6
(lp29
F7.8488855609787134
aI13
asI7
(lp30
F7.6178020952201635
aI13
asI8
(lp31
F7.146530899142264
aI13
asI9
(lp32
F6.5061350532398805
aI13
asI10
(lp33
F6.055971217676424
aI13
assI6
(dp34
I1
(lp35
F5.9836595892180888
aI13
asI2
(lp36
F7.0358022161693254
aI13
asI3
(lp37
F7.2087266838432988
aI13
asI4
(lp38
F7.4007658519368711
aI13
asI5
(lp39
F7.6101167245494246
aI13
asI6
(lp40
F7.7781324677100097
aI13
asI7
(lp41
F7.4625819512775031
aI13
asI8
(lp42
F7.0097990217274901
aI13
asI9
(lp43
F6.381092068779548
aI13
asI10
(lp44
F5.9443520282090478
aI13
assI7
(dp45
I1
(lp46
F5.8966339735707454
aI13
asI2
(lp47
F7.0217190664126097
aI13
asI3
(lp48
F7.1965897586809238
aI13
asI4
(lp49
F7.3893722105623088
aI13
asI5
(lp50
F7.5984009422223862
aI13
asI6
(lp51
F7.7661335896146104
aI13
asI7
(lp52
F7.5091863252164899
aI13
asI8
(lp53
F6.9322212717276894
aI13
asI9
(lp54
F6.3217674422298353
aI13
asI10
(lp55
F5.9090612904150976
aI13
assI8
(dp56
I1
(lp57
F5.9533910298929644
aI13
asI2
(lp58
F7.1869536893993393
aI13
asI3
(lp59
F7.361013746024847
aI13
asI4
(lp60
F7.5473867198869398
aI13
asI5
(lp61
F7.7578780295980678
aI13
asI6
(lp62
F7.9170326887300577
aI13
asI7
(lp63
F8.1033656113388286
aI13
asI8
(lp64
F7.1960280474588716
aI13
asI9
(lp65
F6.3553571433013838
aI13
asI10
(lp66
F5.9598330073763242
aI13
assI9
(dp67
I1
(lp68
F6.5576386228309715
aI13
asI2
(lp69
F7.6926120081911904
aI13
asI3
(lp70
F7.84455745011687
aI13
asI4
(lp71
F8.0152572548479011
aI13
asI5
(lp72
F8.2115700926147603
aI13
asI6
(lp73
F8.3477431489442058
aI13
asI7
(lp74
F8.5802299458712348
aI13
asI8
(lp75
F8.105258513348149
aI13
asI9
(lp76
F7.0335547295276051
aI13
asI10
(lp77
F6.3202119088500028
aI13
assI10
(dp78
I1
(lp79
F7.4140539828197767
aI13
asI2
(lp80
F8.2552514670764907
aI13
asI3
(lp81
F8.3968284435116107
aI13
asI4
(lp82
F8.5461253871530545
aI13
asI5
(lp83
F8.7223420964480098
aI13
asI6
(lp84
F8.8407423024873211
aI13
asI7
(lp85
F9.0077149525643563
aI13
asI8
(lp86
F8.6333269860476065
aI13
asI9
(lp87
F8.0057519029115465
aI13
asI10
(lp88
F7.2716022190017586
aI13
assI11
(dp89
I1
(lp90
F8.1887928415627158
aI13
asI2
(lp91
F8.8823040016945232
aI13
asI3
(lp92
F9.0019355229093598
aI13
asI4
(lp93
F9.1329416661680511
aI13
asI5
(lp94
F9.2826123596708889
aI13
asI6
(lp95
F9.391511128524602
aI13
asI7
(lp96
F9.4710869915287059
aI13
asI8
(lp97
F9.1070100452623048
aI13
asI9
(lp98
F8.5879462754509177
aI13
asI10
(lp99
F8.2292848467089392
aI13
assI12
(dp100
I1
(lp101
F6.1023214468517351
aI13
asI2
(lp102
F7.0190729313331266
aI13
asI3
(lp103
F7.1598090479201151
aI13
asI4
(lp104
F7.3307300864733378
aI13
asI5
(lp105
F7.5435281950602491
aI13
asI6
(lp106
F7.7142703460469946
aI13
asI7
(lp107
F7.5798753753532866
aI13
asI8
(lp108
F7.1272544973210241
aI13
asI9
(lp109
F6.5055992881513891
aI13
asI10
(lp110
F6.0674654048319541
aI13
assI13
(dp111
I1
(lp112
F5.8717182110801627
aI13
asI2
(lp113
F6.797942748096121
aI13
asI3
(lp114
F6.9795043752169219
aI13
asI4
(lp115
F7.1801265352743915
aI13
asI5
(lp116
F7.3994314577228657
aI13
asI6
(lp117
F7.569672379513567
aI13
asI7
(lp118
F7.3000518537419383
aI13
asI8
(lp119
F6.8605796891410415
aI13
asI9
(lp120
F6.2604840256582497
aI13
asI10
(lp121
F5.840668124383039
aI13
assI14
(dp122
I1
(lp123
F5.6427924043892785
aI13
asI2
(lp124
F6.6457432348915049
aI13
asI3
(lp125
F6.8275295888506031
aI13
asI4
(lp126
F7.0386636739969735
aI13
asI5
(lp127
F7.2585159325312221
aI13
asI6
(lp128
F7.440852818965241
aI13
asI7
(lp129
F7.0210928861312274
aI13
asI8
(lp130
F6.5954398352525692
aI13
asI9
(lp131
F6.0169942277576132
aI13
asI10
(lp132
F5.6152069613614461
aI13
assI15
(dp133
I1
(lp134
F5.4172665714831165
aI13
asI2
(lp135
F6.5016220364500867
aI13
asI3
(lp136
F6.6924089795772943
aI13
asI4
(lp137
F6.9080399686743368
aI13
asI5
(lp138
F7.1297761952700949
aI13
asI6
(lp139
F7.3173553555466686
aI13
asI7
(lp140
F6.7490603362096389
aI13
asI8
(lp141
F6.3344959453906702
aI13
asI9
(lp142
F5.7778021470875895
aI13
asI10
(lp143
F5.3924850096639769
aI13
assI16
(dp144
I1
(lp145
F5.1857413938384225
aI13
asI2
(lp146
F6.365551906664062
aI13
asI3
(lp147
F6.563317494288583
aI13
asI4
(lp148
F6.780328143035506
aI13
asI5
(lp149
F7.0068655295009945
aI13
asI6
(lp150
F7.2026020804642155
aI13
asI7
(lp151
F6.4229752721629598
aI13
asI8
(lp152
F6.05894311287686
aI13
asI9
(lp153
F5.5222349280144964
aI13
asI10
(lp154
F5.1676893985312686
aI13
assI17
(dp155
I1
(lp156
F5.0806312879176359
aI13
asI2
(lp157
F6.4838234598918731
aI13
asI3
(lp158
F6.6821905536089474
aI13
asI4
(lp159
F6.8955598254498822
aI13
asI5
(lp160
F7.1166730901184678
aI13
asI6
(lp161
F7.3044886039417669
aI13
asI7
(lp162
F6.845992250728048
aI13
asI8
(lp163
F6.0251349650902153
aI13
asI9
(lp164
F5.5293130202817675
aI13
asI10
(lp165
F5.2383374736718924
aI13
assI18
(dp166
I1
(lp167
F5.4832816564586802
aI13
asI2
(lp168
F6.8811379659877909
aI13
asI3
(lp169
F7.0648697200027186
aI13
asI4
(lp170
F7.2629157777590594
aI13
asI5
(lp171
F7.4798619801729149
aI13
asI6
(lp172
F7.6513924118537728
aI13
asI7
(lp173
F7.602225724523576
aI13
asI8
(lp174
F6.7567515629722879
aI13
asI9
(lp175
F5.844990579519207
aI13
asI10
(lp176
F5.5837194372219852
aI13
assI19
(dp177
I1
(lp178
F6.1000623522396573
aI13
asI2
(lp179
F7.2889967127479629
aI13
asI3
(lp180
F7.4539669099680523
aI13
asI4
(lp181
F7.6393875376615323
aI13
asI5
(lp182
F7.844148060146324
aI13
asI6
(lp183
F7.9974846676882407
aI13
asI7
(lp184
F7.9303823412936243
aI13
asI8
(lp185
F7.4923298887280598
aI13
asI9
(lp186
F6.5462668232754471
aI13
asI10
(lp187
F5.9485820134061367
aI13
assI20
(dp188
I1
(lp189
F6.7249726265227698
aI13
asI2
(lp190
F7.6700865966700231
aI13
asI3
(lp191
F7.8291970574995595
aI13
asI4
(lp192
F7.9996165632295213
aI13
asI5
(lp193
F8.1896401913445622
aI13
asI6
(lp194
F8.3322126384190707
aI13
asI7
(lp195
F8.1641279045316857
aI13
asI8
(lp196
F7.788607626962107
aI13
asI9
(lp197
F7.2557692108511924
aI13
asI10
(lp198
F6.6813090672170681
aI13
assI21
(dp199
I1
(lp200
F7.1770944289204905
aI13
asI2
(lp201
F8.0403899241775427
aI13
asI3
(lp202
F8.1851567564618541
aI13
asI4
(lp203
F8.3456042277656834
aI13
asI5
(lp204
F8.5182062687021691
aI13
asI6
(lp205
F8.6583609954168939
aI13
asI7
(lp206
F8.3930853534115943
aI13
asI8
(lp207
F7.9973547393249209
aI13
asI9
(lp208
F7.5289820377768475
aI13
asI10
(lp209
F7.2908245165710941
aI13
assS'ITERATIONS'
p210
I5000000
s.