(dp0
I4
(dp1
I1
(lp2
F6.2008681026638737
aI13
asI2
(lp3
F7.2009617388737084
aI13
asI3
(lp4
F7.3689354474309399
aI13
asI4
(lp5
F7.5489505157052026
aI13
asI5
(lp6
F7.7551481753738685
aI13
asI6
(lp7
F7.9171485202441305
aI13
asI7
(lp8
F7.7483229869603996
aI13
asI8
(lp9
F7.26923346409448
aI13
asI9
(lp10
F6.6217926971061418
aI13
asI10
(lp11
F6.1561579672488786
aI13
assI5
(dp12
I1
(lp13
F6.0964330339480952
aI13
asI2
(lp14
F7.1204323871241337
aI13
asI3
(lp15
F7.2914083395921754
aI13
asI4
(lp16
F7.4746006511278331
aI13
asI5
(lp17
F7.6826256248636318
aI13
asI6
(lp18
F7.8479149935002281
aI13
asI7
(lp19
F7.6186727641314302
aI13
asI8
(lp20
F7.1465372063584329
aI13
asI9
(lp21
F6.5104892541955879
aI13
asI10
(lp22
F6.0537812686532817
aI13
assI6
(dp23
I1
(lp24
F5.9816598264051875
aI13
asI2
(lp25
F7.0381266942201322
aI13
asI3
(lp26
F7.2115992395924753
aI13
asI4
(lp27
F7.3982037205758697
aI13
asI5
(lp28
F7.6080870349043854
aI13
asI6
(lp29
F7.7769013763693149
aI13
asI7
(lp30
F7.4635301906367078
aI13
asI8
(lp31
F7.0098233125847456
aI13
asI9
(lp32
F6.385325936713345
aI13
asI10
(lp33
F5.941907093494545
aI13
assI7
(dp34
I1
(lp35
F5.8944041113027055
aI13
asI2
(lp36
F7.0244441529572601
aI13
asI3
(lp37
F7.1991822447131808
aI13
asI4
(lp38
F7.386585448032509
aI13
asI5
(lp39
F7.5967580126192127
aI13
asI6
(lp40
F7.7664970352574088
aI13
asI7
(lp41
F7.5085992650553504
aI13
asI8
(lp42
F6.9318604611682479
aI13
asI9
(lp43
F6.3263408882677119
aI13
asI10
(lp44
F5.9064855438003363
aI13
assI8
(dp45
I1
(lp46
F5.9503085390454018
aI13
asI2
(lp47
F7.1914902954737769
aI13
asI3
(lp48
F7.3673593376697379
aI13
asI4
(lp49
F7.5472288750298251
aI13
asI5
(lp50
F7.7575484808495982
aI13
asI6
(lp51
F7.9180145600425975
aI13
asI7
(lp52
F8.1073961651267155
aI13
asI8
(lp53
F7.1994755106246782
aI13
asI9
(lp54
F6.3592544309236745
aI13
asI10
(lp55
F5.9575577716177062
aI13
assI9
(dp56
I1
(lp57
F6.5611596121723075
aI13
asI2
(lp58
F7.6889648456647546
aI13
asI3
(lp59
F7.8478214802963224
aI13
asI4
(lp60
F8.0124890590912443
aI13
asI5
(lp61
F8.2075108819489238
aI13
asI6
(lp62
F8.3458117193735895
aI13
asI7
(lp63
F8.5801920820794813
aI13
asI8
(lp64
F8.1043384549871273
aI13
asI9
(lp65
F7.0402283104144878
aI13
asI10
(lp66
F6.316922636084298
aI13
assI10
(dp67
I1
(lp68
F7.4093483356224841
aI13
asI2
(lp69
F8.2578727633010445
aI13
asI3
(lp70
F8.3974035013492987
aI13
asI4
(lp71
F8.5423964198281386
aI13
asI5
(lp72
F8.7175455867900631
aI13
asI6
(lp73
F8.8433407058296289
aI13
asI7
(lp74
F9.0090865597826415
aI13
asI8
(lp75
F8.6330271420992464
aI13
asI9
(lp76
F8.0117144118817283
aI13
asI10
(lp77
F7.2695363551377437
aI13
assI11
(dp78
I1
(lp79
F8.1855195133483996
aI13
asI2
(lp80
F8.8835214069519335
aI13
asI3
(lp81
F9.0048651803615307
aI13
asI4
(lp82
F9.131365548953978
aI13
asI5
(lp83
F9.2803634891649107
aI13
asI6
(lp84
F9.391926427566748
aI13
asI7
(lp85
F9.4724766606309547
aI13
asI8
(lp86
F9.1061605847714659
aI13
asI9
(lp87
F8.5918514457508959
aI13
asI10
(lp88
F8.2272981979747861
aI13
assI12
(dp89
I1
(lp90
F6.1001259071608311
aI13
asI2
(lp91
F7.0205651521219723
aI13
asI3
(lp92
F7.162437184907243
aI13
asI4
(lp93
F7.3293662331584351
aI13
asI5
(lp94
F7.5441105223095439
aI13
asI6
(lp95
F7.7158468846487622
aI13
asI7
(lp96
F7.5806359807900856
aI13
asI8
(lp97
F7.1271324637299118
aI13
asI9
(lp98
F6.5098524582346382
aI13
asI10
(lp99
F6.0653015472420311
aI13
assI13
(dp100
I1
(lp101
F5.8695665237381371
aI13
asI2
(lp102
F6.8008933555679789
aI13
asI3
(lp103
F6.9818449159293268
aI13
asI4
(lp104
F7.1764807635335526
aI13
asI5
(lp105
F7.3940592065406161
aI13
asI6
(lp106
F7.5721085335110558
aI13
asI7
(lp107
F7.3007398197117057
aI13
asI8
(lp108
F6.8604512365967825
aI13
asI9
(lp109
F6.2645724178173543
aI13
asI10
(lp110
F5.8385717393868992
aI13
assI14
(dp111
I1
(lp112
F5.6406899829716997
aI13
asI2
(lp113
F6.6465478879938056
aI13
asI3
(lp114
F6.8330598480477303
aI13
asI4
(lp115
F7.0344099962090647
aI13
asI5
(lp116
F7.2570793599673493
aI13
asI6
(lp117
F7.4361421317685918
aI13
asI7
(lp118
F7.021717335635028
aI13
asI8
(lp119
F6.5953071650769006
aI13
asI9
(lp120
F6.0209188770451041
aI13
asI10
(lp121
F5.613172855210947
aI13
assI15
(dp122
I1
(lp123
F5.4152117723895188
aI13
asI2
(lp124
F6.503298619590268
aI13
asI3
(lp125
F6.6956838704578558
aI13
asI4
(lp126
F6.9028206000623058
aI13
asI5
(lp127
F7.1277676370331537
aI13
asI6
(lp128
F7.3140763852838147
aI13
asI7
(lp129
F6.7495929685649818
aI13
asI8
(lp130
F6.3343518377551309
aI13
asI9
(lp131
F5.7815752818734243
aI13
asI10
(lp132
F5.3906006881358435
aI13
assI16
(dp133
I1
(lp134
F5.1838108613789879
aI13
asI2
(lp135
F6.3695121363097336
aI13
asI3
(lp136
F6.5652831377424885
aI13
asI4
(lp137
F6.778376355896814
aI13
asI5
(lp138
F7.0055970691334055
aI13
asI6
(lp139
F7.1989883773797194
aI13
asI7
(lp140
F6.4238639102250623
aI13
asI8
(lp141
F6.0588995516980511
aI13
asI9
(lp142
F5.5257321637661185
aI13
asI10
(lp143
F5.1648362202096241
aI13
assI17
(dp144
I1
(lp145
F5.0778780997768509
aI13
asI2
(lp146
F6.4887768813672784
aI13
asI3
(lp147
F6.6834026811274558
aI13
asI4
(lp148
F6.8926692431648178
aI13
asI5
(lp149
F7.1165679825780472
aI13
asI6
(lp150
F7.307051433235447
aI13
asI7
(lp151
F6.8415222407932248
aI13
asI8
(lp152
F6.0237605119619841
aI13
asI9
(lp153
F5.5341829374432105
aI13
asI10
(lp154
F5.2351285146011284
aI13
assI18
(dp155
I1
(lp156
F5.4776750997577475
aI13
asI2
(lp157
F6.8858270337613519
aI13
asI3
(lp158
F7.0702420569635063
aI13
asI4
(lp159
F7.2620222970096844
aI13
asI5
(lp160
F7.4795983552805669
aI13
asI6
(lp161
F7.6518564648508427
aI13
asI7
(lp162
F7.6047664852551229
aI13
asI8
(lp163
F6.7592512740385944
aI13
asI9
(lp164
F5.8474198244452023
aI13
asI10
(lp165
F5.5817205692617238
aI13
assI19
(dp166
I1
(lp167
F6.1018711420780747
aI13
asI2
(lp168
F7.2867181183810565
aI13
asI3
(lp169
F7.4563687071790872
aI13
asI4
(lp170
F7.6360110179529936
aI13
asI5
(lp171
F7.8406160457043432
aI13
asI6
(lp172
F7.9954113083231935
aI13
asI7
(lp173
F7.929139082679562
aI13
asI8
(lp174
F7.4907965755388588
aI13
asI9
(lp175
F6.5520787325987602
aI13
asI10
(lp176
F5.9454431051706189
aI13
assI20
(dp177
I1
(lp178
F6.7192936146713951
aI13
asI2
(lp179
F7.673783068062682
aI13
asI3
(lp180
F7.8295102587213155
aI13
asI4
(lp181
F7.9955595196711329
aI13
asI5
(lp182
F8.1858586204539883
aI13
asI6
(lp183
F8.3340799066437032
aI13
asI7
(lp184
F8.1642363634858661
aI13
asI8
(lp185
F7.787826129136624
aI13
asI9
(lp186
F7.2606698870222139
aI13
asI10
(lp187
F6.6792925940561236
aI13
assI21
(dp188
I1
(lp189
F7.1731264162304571
aI13
asI2
(lp190
F8.0427324388916333
aI13
asI3
(lp191
F8.1878220319442896
aI13
asI4
(lp192
F8.3434962104702439
aI13
asI5
(lp193
F8.5168482132650496
aI13
asI6
(lp194
F8.6580230830989606
aI13
asI7
(lp195
F8.3931650857291711
aI13
asI8
(lp196
F7.9962280211591894
aI13
asI9
(lp197
F7.5320708964029315
aI13
asI10
(lp198
F7.2887962944908553
aI13
assS'ITERATIONS'
p199
I20000000
s.