(dp0
I3
(dp1
I1
(lp2
F6.4071584088106643
aI13
asI2
(lp3
F7.1993469154632646
aI13
asI3
(lp4
F7.4402134445813157
aI13
asI4
(lp5
F7.6698226488204897
aI13
asI5
(lp6
F7.7692808612229713
aI13
asI6
(lp7
F7.9067078279926903
aI13
asI7
(lp8
F7.8529763723550303
aI13
asI8
(lp9
F7.3973352237009333
aI13
asI9
(lp10
F6.6350525941379912
aI13
asI10
(lp11
F6.2205756278662516
aI13
assI4
(dp12
I1
(lp13
F6.3093743632483941
aI13
asI2
(lp14
F7.1199070242494269
aI13
asI3
(lp15
F7.3622399135360528
aI13
asI4
(lp16
F7.5958198580878324
aI13
asI5
(lp17
F7.6862296752905834
aI13
asI6
(lp18
F7.824372189034035
aI13
asI7
(lp19
F7.7328568223328871
aI13
asI8
(lp20
F7.2841145671433232
aI13
asI9
(lp21
F6.5336789388923791
aI13
asI10
(lp22
F6.1270518910098053
aI13
assI5
(dp23
I1
(lp24
F6.2030968343146968
aI13
asI2
(lp25
F7.0372113943567118
aI13
asI3
(lp26
F7.3050756727820048
aI13
asI4
(lp27
F7.5281339347899356
aI13
asI5
(lp28
F7.6292369848051091
aI13
asI6
(lp29
F7.7500055589439789
aI13
asI7
(lp30
F7.6034548563901438
aI13
asI8
(lp31
F7.1611679005257614
aI13
asI9
(lp32
F6.4232159804128308
aI13
asI10
(lp33
F6.0246104518754402
aI13
assI6
(dp34
I1
(lp35
F6.0842080217777408
aI13
asI2
(lp36
F6.9469044402460272
aI13
asI3
(lp37
F7.2171489941970481
aI13
asI4
(lp38
F7.4201635447790064
aI13
asI5
(lp39
F7.5462111261807516
aI13
asI6
(lp40
F7.6866278372078671
aI13
asI7
(lp41
F7.4479841607038901
aI13
asI8
(lp42
F7.024535545796871
aI13
asI9
(lp43
F6.3036365427390173
aI13
asI10
(lp44
F5.917481921822084
aI13
assI7
(dp45
I1
(lp46
F6.0206155103710985
aI13
asI2
(lp47
F6.9739053564710636
aI13
asI3
(lp48
F7.1988382392570553
aI13
asI4
(lp49
F7.4194545445329716
aI13
asI5
(lp50
F7.5385257868819266
aI13
asI6
(lp51
F7.6862981081292094
aI13
asI7
(lp52
F7.5006331644252811
aI13
asI8
(lp53
F6.9420067016167408
aI13
asI9
(lp54
F6.2272449092731037
aI13
asI10
(lp55
F5.8636306844472816
aI13
assI8
(dp56
I1
(lp57
F6.039682681164769
aI13
asI2
(lp58
F7.0825428076736276
aI13
asI3
(lp59
F7.3211852121384453
aI13
asI4
(lp60
F7.6348549538483352
aI13
asI5
(lp61
F7.7384686405574401
aI13
asI6
(lp62
F7.754959183110322
aI13
asI7
(lp63
F8.161820241721589
aI13
asI8
(lp64
F7.1722209756116104
aI13
asI9
(lp65
F6.2532143443503383
aI13
asI10
(lp66
F5.9200238451851996
aI13
assI9
(dp67
I1
(lp68
F6.7519245032319475
aI13
asI2
(lp69
F7.6227513573093946
aI13
asI3
(lp70
F7.8501115948761253
aI13
asI4
(lp71
F8.1232768836344214
aI13
asI5
(lp72
F8.1529197662558346
aI13
asI6
(lp73
F8.2135452188867859
aI13
asI7
(lp74
F8.5737162394241082
aI13
asI8
(lp75
F8.1424627960224996
aI13
asI9
(lp76
F6.9322093947112409
aI13
asI10
(lp77
F6.3073234980231856
aI13
assI10
(dp78
I1
(lp79
F7.4941409459053894
aI13
asI2
(lp80
F8.1314470418244067
aI13
asI3
(lp81
F8.3841080127649299
aI13
asI4
(lp82
F8.6083888668763819
aI13
asI5
(lp83
F8.6886207841975533
aI13
asI6
(lp84
F8.7292021571975482
aI13
asI7
(lp85
F8.9119551893218603
aI13
asI8
(lp86
F8.6551621080606758
aI13
asI9
(lp87
F7.9292398256235668
aI13
asI10
(lp88
F7.2248832452820135
aI13
assI11
(dp89
I1
(lp90
F8.3074871494532836
aI13
asI2
(lp91
F8.7981879183403482
aI13
asI3
(lp92
F8.9820503228072113
aI13
asI4
(lp93
F9.1676556738944583
aI13
asI5
(lp94
F9.2215814507459939
aI13
asI6
(lp95
F9.3179962123112077
aI13
asI7
(lp96
F9.4568285192304362
aI13
asI8
(lp97
F9.1382856745215051
aI13
asI9
(lp98
F8.5090386309585497
aI13
asI10
(lp99
F8.2066364814006683
aI13
assI12
(dp100
I1
(lp101
F6.2041275877363349
aI13
asI2
(lp102
F6.9770362090546181
aI13
asI3
(lp103
F7.1545859182166351
aI13
asI4
(lp104
F7.3588835014103724
aI13
asI5
(lp105
F7.4381900282202471
aI13
asI6
(lp106
F7.7274598423977725
aI13
asI7
(lp107
F7.5631054426288253
aI13
asI8
(lp108
F7.1430045540844018
aI13
asI9
(lp109
F6.4231938040524481
aI13
asI10
(lp110
F6.036107147298968
aI13
assI13
(dp111
I1
(lp112
F5.9696004293337452
aI13
asI2
(lp113
F6.7254040878742005
aI13
asI3
(lp114
F6.9868577247454002
aI13
asI4
(lp115
F7.2127656682031631
aI13
asI5
(lp116
F7.3401667381907938
aI13
asI6
(lp117
F7.5241838641715617
aI13
asI7
(lp118
F7.2840845511090917
aI13
asI8
(lp119
F6.8755992711821827
aI13
asI9
(lp120
F6.1802528381951021
aI13
asI10
(lp121
F5.8099334989791567
aI13
assI14
(dp122
I1
(lp123
F5.7367457647350273
aI13
asI2
(lp124
F6.5658501755230354
aI13
asI3
(lp125
F6.8272892960459552
aI13
asI4
(lp126
F7.0680201457931933
aI13
asI5
(lp127
F7.1567661181854856
aI13
asI6
(lp128
F7.3316401187715519
aI13
asI7
(lp129
F7.0058890813430743
aI13
asI8
(lp130
F6.6097609613602382
aI13
asI9
(lp131
F5.9391449838211816
aI13
asI10
(lp132
F5.5852609522033676
aI13
assI15
(dp133
I1
(lp134
F5.5079315630954326
aI13
asI2
(lp135
F6.4149296830801337
aI13
asI3
(lp136
F6.7609521077793113
aI13
asI4
(lp137
F6.963069342324216
aI13
asI5
(lp138
F7.0896575907626014
aI13
asI6
(lp139
F7.1945399310219713
aI13
asI7
(lp140
F6.734724135790926
aI13
asI8
(lp141
F6.3480360296445442
aI13
asI9
(lp142
F5.701158117910567
aI13
asI10
(lp143
F5.3621636499347005
aI13
assI16
(dp144
I1
(lp145
F5.2656120370209027
aI13
asI2
(lp146
F6.2544257715118814
aI13
asI3
(lp147
F6.5892396239826372
aI13
asI4
(lp148
F6.7264391254023943
aI13
asI5
(lp149
F6.9339619340879715
aI13
asI6
(lp150
F7.1115843119260838
aI13
asI7
(lp151
F6.4077593810388453
aI13
asI8
(lp152
F6.0731057558137316
aI13
asI9
(lp153
F5.4631445516777823
aI13
asI10
(lp154
F5.1528254952331354
aI13
assI17
(dp155
I1
(lp156
F5.2476872432868618
aI13
asI2
(lp157
F6.5220486454830429
aI13
asI3
(lp158
F6.6821293242462652
aI13
asI4
(lp159
F6.8973887293854244
aI13
asI5
(lp160
F7.0601255445652829
aI13
asI6
(lp161
F7.2541911414712299
aI13
asI7
(lp162
F6.8520870889799728
aI13
asI8
(lp163
F6.0221122486790613
aI13
asI9
(lp164
F5.4058968323123926
aI13
asI10
(lp165
F5.1555102710685663
aI13
assI18
(dp166
I1
(lp167
F5.5076544078357674
aI13
asI2
(lp168
F6.7963148329661269
aI13
asI3
(lp169
F7.0409867646449698
aI13
asI4
(lp170
F7.3233017802665499
aI13
asI5
(lp171
F7.4499061759189491
aI13
asI6
(lp172
F7.5104008806486693
aI13
asI7
(lp173
F7.6485767739311967
aI13
asI8
(lp174
F6.737974959254867
aI13
asI9
(lp175
F5.7021268743228948
aI13
asI10
(lp176
F5.5299164369959577
aI13
assI19
(dp177
I1
(lp178
F6.2668673192537963
aI13
asI2
(lp179
F7.2365197522047033
aI13
asI3
(lp180
F7.4729079345900926
aI13
asI4
(lp181
F7.709318435367174
aI13
asI5
(lp182
F7.7765172609570001
aI13
asI6
(lp183
F7.8895911905570077
aI13
asI7
(lp184
F7.913960571883802
aI13
asI8
(lp185
F7.5282309577434372
aI13
asI9
(lp186
F6.4383311729525641
aI13
asI10
(lp187
F5.9248486004652365
aI13
assI20
(dp188
I1
(lp189
F6.7866430989032391
aI13
asI2
(lp190
F7.5723866207458599
aI13
asI3
(lp191
F7.8314588240597089
aI13
asI4
(lp192
F8.0243356965869665
aI13
asI5
(lp193
F8.1433188218762087
aI13
asI6
(lp194
F8.2465365386376845
aI13
asI7
(lp195
F8.0772694200657025
aI13
asI8
(lp196
F7.8073448817940712
aI13
asI9
(lp197
F7.1695381350328082
aI13
asI10
(lp198
F6.6269736707923839
aI13
assI21
(dp199
I1
(lp200
F7.2767460737316139
aI13
asI2
(lp201
F7.9812864859514203
aI13
asI3
(lp202
F8.1828280820102393
aI13
asI4
(lp203
F8.3484801530464807
aI13
asI5
(lp204
F8.4471124597830638
aI13
asI6
(lp205
F8.6030672750953823
aI13
asI7
(lp206
F8.3861618410126653
aI13
asI8
(lp207
F8.0223710290987
aI13
asI9
(lp208
F7.438469568487001
aI13
asI10
(lp209
F7.25835219995869
aI13
assS'ITERATIONS'
p210
I10000
s.