(dp0
I3
(dp1
I1
S'Hit'
p2
sI2
g2
sI3
g2
sI4
g2
sI5
g2
sI6
g2
sI7
g2
sI8
g2
sI9
g2
sI10
g2
ssI4
(dp3
I1
g2
sI2
g2
sI3
g2
sI4
g2
sI5
g2
sI6
g2
sI7
g2
sI8
g2
sI9
g2
sI10
g2
ssI5
(dp4
I1
g2
sI2
g2
sI3
g2
sI4
g2
sI5
g2
sI6
g2
sI7
g2
sI8
g2
sI9
g2
sI10
g2
ssI6
(dp5
I1
g2
sI2
g2
sI3
g2
sI4
g2
sI5
g2
sI6
g2
sI7
g2
sI8
g2
sI9
g2
sI10
g2
ssI7
(dp6
I1
g2
sI2
g2
sI3
g2
sI4
g2
sI5
g2
sI6
g2
sI7
g2
sI8
g2
sI9
g2
sI10
g2
ssI8
(dp7
I1
g2
sI2
g2
sI3
g2
sI4
g2
sI5
g2
sI6
g2
sI7
g2
sI8
g2
sI9
g2
sI10
g2
ssI9
(dp8
I1
g2
sI2
g2
sI3
g2
sI4
g2
sI5
g2
sI6
S'Double'
p9
sI7
g2
sI8
g2
sI9
g2
sI10
g2
ssI10
(dp10
I1
g2
sI2
g9
sI3
g9
sI4
g9
sI5
g9
sI6
g9
sI7
g9
sI8
g2
sI9
g2
sI10
g2
ssI11
(dp11
I1
g2
sI2
g9
sI3
g9
sI4
g9
sI5
g9
sI6
g9
sI7
g9
sI8
g2
sI9
g2
sI10
g2
ssI12
(dp12
I1
g2
sI2
g2
sI3
g2
sI4
g2
sI5
g2
sI6
g2
sI7
g2
sI8
g2
sI9
g2
sI10
g2
ssI13
(dp13
I1
g2
sI2
g2
sI3
g2
sI4
g2
sI5
g2
sI6
g2
sI7
g2
sI8
g2
sI9
g2
sI10
g2
ssI14
(dp14
I1
g2
sI2
g2
sI3
g2
sI4
g2
sI5
g2
sI6
g2
sI7
g2
sI8
g2
sI9
g2
sI10
g2
ssI15
(dp15
I1
g2
sI2
g2
sI3
g2
sI4
g2
sI5
g2
sI6
g2
sI7
g2
sI8
g2
sI9
g2
sI10
g2
ssI16
(dp16
I1
g2
sI2
g2
sI3
g2
sI4
g2
sI5
g2
sI6
g2
sI7
g2
sI8
g2
sI9
g2
sI10
g2
ssI17
(dp17
I1
g2
sI2
g2
sI3
g2
sI4
g2
sI5
g2
sI6
g2
sI7
g2
sI8
g2
sI9
g2
sI10
g2
ssI18
(dp18
I1
g2
sI2
S'Stay'
p19
sI3
g19
sI4
g19
sI5
g19
sI6
g19
sI7
g19
sI8
g19
sI9
g2
sI10
g2
ssI19
(dp20
I1
g19
sI2
g19
sI3
g19
sI4
g19
sI5
g19
sI6
g19
sI7
g19
sI8
g19
sI9
g19
sI10
g19
ssI20
(dp21
I1
g19
sI2
g19
sI3
g19
sI4
g19
sI5
g19
sI6
g19
sI7
g19
sI8
g19
sI9
g19
sI10
g19
ssS'ITERATIONS'
p22
I5000000
s.