(dp0
I3
(dp1
I1
(lp2
I11356
aI55860
asI2
(lp3
I28766
aI80998
asI3
(lp4
I30550
aI80743
asI4
(lp5
I32012
aI80383
asI5
(lp6
I33950
aI80599
asI6
(lp7
I35518
aI80813
asI7
(lp8
I21068
aI80676
asI8
(lp9
I19596
aI80425
asI9
(lp10
I18585
aI81002
asI10
(lp11
I68155
aI298501
assI4
(dp12
I1
(lp13
I11188
aI55808
asI2
(lp14
I28786
aI80526
asI3
(lp15
I30767
aI81540
asI4
(lp16
I32177
aI80419
asI5
(lp17
I33795
aI80510
asI6
(lp18
I35752
aI81273
asI7
(lp19
I21097
aI80414
asI8
(lp20
I19692
aI80595
asI9
(lp21
I18678
aI80787
asI10
(lp22
I68671
aI298128
assI5
(dp23
I1
(lp24
I11413
aI56195
asI2
(lp25
I28653
aI80616
asI3
(lp26
I30378
aI80689
asI4
(lp27
I32178
aI80689
asI5
(lp28
I33518
aI80720
asI6
(lp29
I35705
aI81147
asI7
(lp30
I21291
aI80623
asI8
(lp31
I19424
aI80639
asI9
(lp32
I18577
aI80976
asI10
(lp33
I68328
aI297706
assI6
(dp34
I1
(lp35
I11297
aI55833
asI2
(lp36
I28526
aI80360
asI3
(lp37
I30638
aI80960
asI4
(lp38
I32443
aI81184
asI5
(lp39
I33714
aI80566
asI6
(lp40
I35532
aI80657
asI7
(lp41
I21218
aI80942
asI8
(lp42
I19856
aI80781
asI9
(lp43
I18577
aI80806
asI10
(lp44
I68295
aI297911
assI7
(dp45
I1
(lp46
I11215
aI55717
asI2
(lp47
I29134
aI81008
asI3
(lp48
I30393
aI80830
asI4
(lp49
I32009
aI80413
asI5
(lp50
I33712
aI80715
asI6
(lp51
I35788
aI80802
asI7
(lp52
I21022
aI80396
asI8
(lp53
I19687
aI80684
asI9
(lp54
I18671
aI80921
asI10
(lp55
I68660
aI298514
assI8
(dp56
I1
(lp57
I11199
aI55714
asI2
(lp58
I28812
aI80294
asI3
(lp59
I30352
aI81045
asI4
(lp60
I31945
aI80780
asI5
(lp61
I33925
aI80479
asI6
(lp62
I35627
aI80791
asI7
(lp63
I21082
aI80645
asI8
(lp64
I19716
aI80925
asI9
(lp65
I18541
aI80745
asI10
(lp66
I68738
aI298582
assI9
(dp67
I1
(lp68
I11220
aI55472
asI2
(lp69
I28753
aI80735
asI3
(lp70
I30406
aI80754
asI4
(lp71
I32156
aI80748
asI5
(lp72
I33923
aI80544
asI6
(lp73
I35427
aI80542
asI7
(lp74
I21075
aI80825
asI8
(lp75
I19628
aI80297
asI9
(lp76
I18550
aI80939
asI10
(lp77
I69100
aI299144
assI10
(dp78
I1
(lp79
I11085
aI55196
asI2
(lp80
I28941
aI80985
asI3
(lp81
I30251
aI80420
asI4
(lp82
I31885
aI80113
asI5
(lp83
I34353
aI81234
asI6
(lp84
I35279
aI80507
asI7
(lp85
I21042
aI81194
asI8
(lp86
I19887
aI81333
asI9
(lp87
I18502
aI80776
asI10
(lp88
I68722
aI298242
assI11
(dp89
I1
(lp90
I11180
aI55600
asI2
(lp91
I29013
aI80930
asI3
(lp92
I30324
aI80540
asI4
(lp93
I31797
aI80082
asI5
(lp94
I34125
aI80835
asI6
(lp95
I35672
aI81097
asI7
(lp96
I21243
aI81167
asI8
(lp97
I19715
aI80834
asI9
(lp98
I18441
aI80733
asI10
(lp99
I68850
aI298182
assI12
(dp100
I1
(lp101
I11079
aI55741
asI2
(lp102
I28849
aI80873
asI3
(lp103
I30246
aI80709
asI4
(lp104
I32326
aI80895
asI5
(lp105
I33741
aI80605
asI6
(lp106
I35174
aI80709
asI7
(lp107
I20989
aI80900
asI8
(lp108
I19528
aI80896
asI9
(lp109
I18580
aI80983
asI10
(lp110
I68138
aI297689
assI13
(dp111
I1
(lp112
I11309
aI55773
asI2
(lp113
I28658
aI80524
asI3
(lp114
I30452
aI80570
asI4
(lp115
I32267
aI80777
asI5
(lp116
I34059
aI80621
asI6
(lp117
I35687
aI81108
asI7
(lp118
I21033
aI80941
asI8
(lp119
I19647
aI80498
asI9
(lp120
I18537
aI80926
asI10
(lp121
I68444
aI298262
assI14
(dp122
I1
(lp123
I11193
aI55627
asI2
(lp124
I28710
aI80640
asI3
(lp125
I30730
aI81022
asI4
(lp126
I32152
aI80964
asI5
(lp127
I33907
aI80538
asI6
(lp128
I35167
aI80186
asI7
(lp129
I21279
aI80782
asI8
(lp130
I19663
aI80989
asI9
(lp131
I18813
aI80831
asI10
(lp132
I68814
aI298421
assI15
(dp133
I1
(lp134
I11102
aI55501
asI2
(lp135
I28904
aI80895
asI3
(lp136
I30463
aI80736
asI4
(lp137
I32070
aI80708
asI5
(lp138
I33772
aI80557
asI6
(lp139
I35539
aI80683
asI7
(lp140
I21299
aI81046
asI8
(lp141
I19602
aI80736
asI9
(lp142
I18562
aI80710
asI10
(lp143
I68740
aI298428
assI16
(dp144
I1
(lp145
I11175
aI55729
asI2
(lp146
I28683
aI80728
asI3
(lp147
I30354
aI80143
asI4
(lp148
I32608
aI81547
asI5
(lp149
I33843
aI80603
asI6
(lp150
I35479
aI80614
asI7
(lp151
I21285
aI80881
asI8
(lp152
I19765
aI80439
asI9
(lp153
I18490
aI80695
asI10
(lp154
I68994
aI298621
assI17
(dp155
I1
(lp156
F13474.5
aI56139
asI2
(lp157
F33952.0
aI80770
asI3
(lp158
F35714.0
aI81262
asI4
(lp159
F37178.5
aI80671
asI5
(lp160
F38349.5
aI80404
asI6
(lp161
F40099.5
aI80871
asI7
(lp162
F36431.0
aI81344
asI8
(lp163
F24745.0
aI80796
asI9
(lp164
F23463.5
aI80901
asI10
(lp165
F86950.5
aI296842
assI18
(dp166
I1
(lp167
F21634.5
aI55762
asI2
(lp168
F44770.0
aI80765
asI3
(lp169
F45893.0
aI80860
asI4
(lp170
F47306.0
aI81066
asI5
(lp171
F48339.0
aI80546
asI6
(lp172
F49660.5
aI81242
asI7
(lp173
F56387.5
aI80299
asI8
(lp174
F44485.0
aI80716
asI9
(lp175
F33024.0
aI80932
asI10
(lp176
F122669.0
aI297812
assI19
(dp177
I1
(lp178
F33116.0
aI55688
asI2
(lp179
F55403.0
aI80370
asI3
(lp180
F56566.0
aI80857
asI4
(lp181
F57404.5
aI80963
asI5
(lp182
F58075.0
aI80774
asI6
(lp183
F58587.5
aI80697
asI7
(lp184
F65204.5
aI81011
asI8
(lp185
F63820.0
aI80117
asI9
(lp186
F52279.0
aI81255
asI10
(lp187
F159311.5
aI298268
assI20
(dp188
I1
(lp189
F44880.0
aI55982
asI2
(lp190
F65806.0
aI80542
asI3
(lp191
F65967.5
aI80345
asI4
(lp192
F66733.5
aI80584
asI5
(lp193
F67459.5
aI80862
asI6
(lp194
F67619.0
aI80616
asI7
(lp195
F71908.5
aI81095
asI8
(lp196
F72440.0
aI80756
asI9
(lp197
F71521.5
aI81371
asI10
(lp198
F231751.5
aI297847
assI21
(dp199
I1
(lp200
F53194.0
aI55895
asI2
(lp201
F75752.0
aI80577
asI3
(lp202
F75828.0
aI80493
asI4
(lp203
F76557.0
aI81092
asI5
(lp204
F76516.0
aI80931
asI6
(lp205
F76344.0
aI80509
asI7
(lp206
F78174.0
aI81172
asI8
(lp207
F78017.5
aI80814
asI9
(lp208
F78030.5
aI80510
asI10
(lp209
F292402.0
aI298007
assS'ITERATIONS'
p210
I1000000
s.