(dp0
I4
(dp1
I1
(lp2
I224632
aI1116911
asI2
(lp3
I576418
aI1617863
asI3
(lp4
I607222
aI1615534
asI4
(lp5
I643520
aI1616480
asI5
(lp6
I677878
aI1615746
asI6
(lp7
I708834
aI1615256
asI7
(lp8
I422653
aI1614498
asI8
(lp9
I394133
aI1615477
asI9
(lp10
I369689
aI1614239
asI10
(lp11
I1370673
aI5957996
assI5
(dp12
I1
(lp13
I224182
aI1115409
asI2
(lp14
I577888
aI1616810
asI3
(lp15
I609465
aI1615901
asI4
(lp16
I644189
aI1615763
asI5
(lp17
I678632
aI1615785
asI6
(lp18
I708027
aI1614808
asI7
(lp19
I423787
aI1617847
asI8
(lp20
I393744
aI1614721
asI9
(lp21
I370117
aI1615249
asI10
(lp22
I1370963
aI5957707
assI6
(dp23
I1
(lp24
I224992
aI1115109
asI2
(lp25
I576760
aI1616058
asI3
(lp26
I608871
aI1616419
asI4
(lp27
I642706
aI1614881
asI5
(lp28
I677978
aI1615636
asI6
(lp29
I710376
aI1617707
asI7
(lp30
I422153
aI1613752
asI8
(lp31
I392958
aI1615318
asI9
(lp32
I369870
aI1614032
asI10
(lp33
I1372829
aI5961088
assI7
(dp34
I1
(lp35
I224525
aI1118113
asI2
(lp36
I576145
aI1614474
asI3
(lp37
I607906
aI1614868
asI4
(lp38
I643338
aI1615662
asI5
(lp39
I677153
aI1613449
asI6
(lp40
I709299
aI1613595
asI7
(lp41
I421984
aI1613298
asI8
(lp42
I393288
aI1616501
asI9
(lp43
I370502
aI1615459
asI10
(lp44
I1371260
aI5964581
assI8
(dp45
I1
(lp46
I224767
aI1116256
asI2
(lp47
I575882
aI1615512
asI3
(lp48
I608428
aI1614493
asI4
(lp49
I644004
aI1614601
asI5
(lp50
I678596
aI1617076
asI6
(lp51
I709540
aI1615768
asI7
(lp52
I422866
aI1613433
asI8
(lp53
I394081
aI1614676
asI9
(lp54
I369692
aI1616069
asI10
(lp55
I1371853
aI5962116
assI9
(dp56
I1
(lp57
I224293
aI1116474
asI2
(lp58
I576176
aI1614688
asI3
(lp59
I608709
aI1616158
asI4
(lp60
I642632
aI1612300
asI5
(lp61
I678297
aI1615701
asI6
(lp62
I709570
aI1615484
asI7
(lp63
I423167
aI1616149
asI8
(lp64
I393649
aI1615971
asI9
(lp65
I369994
aI1613991
asI10
(lp66
I1371867
aI5963084
assI10
(dp67
I1
(lp68
I224466
aI1116222
asI2
(lp69
I576708
aI1615119
asI3
(lp70
I608835
aI1614778
asI4
(lp71
I643763
aI1616348
asI5
(lp72
I678111
aI1615205
asI6
(lp73
I709638
aI1615410
asI7
(lp74
I421695
aI1611820
asI8
(lp75
I393482
aI1615390
asI9
(lp76
I370008
aI1615989
asI10
(lp77
I1374941
aI5963719
assI11
(dp78
I1
(lp79
I224856
aI1117032
asI2
(lp80
I575658
aI1615507
asI3
(lp81
I609592
aI1615236
asI4
(lp82
I644475
aI1615883
asI5
(lp83
I676749
aI1614119
asI6
(lp84
I708669
aI1613343
asI7
(lp85
I422747
aI1615200
asI8
(lp86
I394538
aI1617488
asI9
(lp87
I370730
aI1616363
asI10
(lp88
I1372028
aI5959829
assI12
(dp89
I1
(lp90
I224708
aI1117950
asI2
(lp91
I576428
aI1613882
asI3
(lp92
I608600
aI1613211
asI4
(lp93
I642691
aI1614666
asI5
(lp94
I679535
aI1616814
asI6
(lp95
I709602
aI1613885
asI7
(lp96
I423835
aI1614615
asI8
(lp97
I392858
aI1615237
asI9
(lp98
I370520
aI1615652
asI10
(lp99
I1372500
aI5964088
assI13
(dp100
I1
(lp101
I225343
aI1117520
asI2
(lp102
I575707
aI1614439
asI3
(lp103
I608862
aI1616100
asI4
(lp104
I642893
aI1614040
asI5
(lp105
I678218
aI1615189
asI6
(lp106
I709838
aI1615298
asI7
(lp107
I422652
aI1615079
asI8
(lp108
I392933
aI1616831
asI9
(lp109
I370288
aI1614762
asI10
(lp110
I1372593
aI5960742
assI14
(dp111
I1
(lp112
I224448
aI1117459
asI2
(lp113
I575733
aI1614140
asI3
(lp114
I607571
aI1612580
asI4
(lp115
I644363
aI1616995
asI5
(lp116
I679382
aI1616655
asI6
(lp117
I708328
aI1614988
asI7
(lp118
I423454
aI1616634
asI8
(lp119
I393733
aI1613943
asI9
(lp120
I370240
aI1614612
asI10
(lp121
I1373374
aI5961994
assI15
(dp122
I1
(lp123
I225389
aI1116963
asI2
(lp124
I576378
aI1615582
asI3
(lp125
I608561
aI1614236
asI4
(lp126
I643952
aI1615049
asI5
(lp127
I678420
aI1615578
asI6
(lp128
I709526
aI1615915
asI7
(lp129
I422886
aI1614233
asI8
(lp130
I393853
aI1615460
asI9
(lp131
I370015
aI1614578
asI10
(lp132
I1372474
aI5962406
assI16
(dp133
I1
(lp134
I224035
aI1117490
asI2
(lp135
I575625
aI1614134
asI3
(lp136
I607852
aI1614899
asI4
(lp137
I643205
aI1614948
asI5
(lp138
I677790
aI1617161
asI6
(lp139
I709704
aI1616694
asI7
(lp140
I422235
aI1613353
asI8
(lp141
I393615
aI1614607
asI9
(lp142
I369864
aI1614698
asI10
(lp143
I1371812
aI5962016
assI17
(dp144
I1
(lp145
F270818.0
aI1118749
asI2
(lp146
F680441.0
aI1612183
asI3
(lp147
F711569.5
aI1615886
asI4
(lp148
F743075.5
aI1615957
asI5
(lp149
F773614.5
aI1615256
asI6
(lp150
F802427.0
aI1615274
asI7
(lp151
F719374.0
aI1613311
asI8
(lp152
F497325.5
aI1616182
asI9
(lp153
F468648.5
aI1617236
asI10
(lp154
F1733263.0
aI5959966
assI18
(dp155
I1
(lp156
F432493.5
aI1118007
asI2
(lp157
F896992.5
aI1617917
asI3
(lp158
F919930.0
aI1615882
asI4
(lp159
F941210.5
aI1614554
asI5
(lp160
F968183.5
aI1613767
asI6
(lp161
F988327.5
aI1615681
asI7
(lp162
F1131136.5
aI1615185
asI8
(lp163
F892551.0
aI1614367
asI9
(lp164
F659351.0
aI1615671
asI10
(lp165
F2455703.0
aI5958969
assI19
(dp166
I1
(lp167
F664623.0
aI1117185
asI2
(lp168
F1110631.0
aI1614190
asI3
(lp169
F1128705.5
aI1617024
asI4
(lp170
F1142151.5
aI1614082
asI5
(lp171
F1165152.5
aI1617612
asI6
(lp172
F1172444.0
aI1614430
asI7
(lp173
F1305060.0
aI1614298
asI8
(lp174
F1286325.0
aI1614509
asI9
(lp175
F1036008.0
aI1611251
asI10
(lp176
F3181613.5
aI5965419
assI20
(dp177
I1
(lp178
F895060.5
aI1117825
asI2
(lp179
F1320493.0
aI1616144
asI3
(lp180
F1328224.0
aI1615069
asI4
(lp181
F1336128.0
aI1614722
asI5
(lp182
F1349734.0
aI1615727
asI6
(lp183
F1357803.5
aI1618133
asI7
(lp184
F1431457.5
aI1614176
asI8
(lp185
F1443276.0
aI1611270
asI9
(lp186
F1421683.5
aI1617055
asI10
(lp187
F4636543.5
aI5959879
assI21
(dp188
I1
(lp189
F1063525.5
aI1117156
asI2
(lp190
F1518905.5
aI1615776
asI3
(lp191
F1519389.5
aI1613228
asI4
(lp192
F1525456.5
aI1616900
asI5
(lp193
F1528501.0
aI1616260
asI6
(lp194
F1531899.5
aI1617466
asI7
(lp195
F1552443.5
aI1611901
asI8
(lp196
F1558579.0
aI1614764
asI9
(lp197
F1566156.5
aI1615181
asI10
(lp198
F5848860.5
aI5961368
assS'ITERATIONS'
p199
I20000000
s.