(dp0
I3
(dp1
I1
(lp2
I109
aI534
asI2
(lp3
I286
aI819
asI3
(lp4
I304
aI800
asI4
(lp5
I327
aI853
asI5
(lp6
I300
aI787
asI6
(lp7
I329
aI793
asI7
(lp8
I194
aI786
asI8
(lp9
I189
aI812
asI9
(lp10
I186
aI840
asI10
(lp11
I711
aI2976
assI4
(dp12
I1
(lp13
I128
aI548
asI2
(lp14
I281
aI804
asI3
(lp15
I332
aI820
asI4
(lp16
I331
aI857
asI5
(lp17
I329
aI792
asI6
(lp18
I384
aI827
asI7
(lp19
I213
aI786
asI8
(lp20
I185
aI765
asI9
(lp21
I179
aI779
asI10
(lp22
I707
aI3022
assI5
(dp23
I1
(lp24
I115
aI545
asI2
(lp25
I304
aI828
asI3
(lp26
I313
aI796
asI4
(lp27
I339
aI832
asI5
(lp28
I358
aI826
asI6
(lp29
I353
aI823
asI7
(lp30
I204
aI813
asI8
(lp31
I187
aI804
asI9
(lp32
I190
aI832
asI10
(lp33
I628
aI2901
assI6
(dp34
I1
(lp35
I112
aI524
asI2
(lp36
I297
aI808
asI3
(lp37
I295
aI833
asI4
(lp38
I320
aI813
asI5
(lp39
I332
aI774
asI6
(lp40
I358
aI834
asI7
(lp41
I232
aI855
asI8
(lp42
I192
aI774
asI9
(lp43
I199
aI828
asI10
(lp44
I704
aI2957
assI7
(dp45
I1
(lp46
I100
aI583
asI2
(lp47
I278
aI758
asI3
(lp48
I289
aI816
asI4
(lp49
I320
aI803
asI5
(lp50
I345
aI815
asI6
(lp51
I362
aI819
asI7
(lp52
I224
aI797
asI8
(lp53
I190
aI777
asI9
(lp54
I157
aI792
asI10
(lp55
I677
aI3040
assI8
(dp56
I1
(lp57
I109
aI563
asI2
(lp58
I295
aI813
asI3
(lp59
I286
aI789
asI4
(lp60
I306
aI810
asI5
(lp61
I358
aI867
asI6
(lp62
I363
aI827
asI7
(lp63
I209
aI787
asI8
(lp64
I196
aI806
asI9
(lp65
I194
aI809
asI10
(lp66
I674
aI2929
assI9
(dp67
I1
(lp68
I101
aI555
asI2
(lp69
I294
aI812
asI3
(lp70
I323
aI849
asI4
(lp71
I293
aI787
asI5
(lp72
I337
aI798
asI6
(lp73
I338
aI795
asI7
(lp74
I192
aI760
asI8
(lp75
I236
aI892
asI9
(lp76
I159
aI770
asI10
(lp77
I690
aI2982
assI10
(dp78
I1
(lp79
I84
aI532
asI2
(lp80
I288
aI794
asI3
(lp81
I303
aI815
asI4
(lp82
I316
aI806
asI5
(lp83
I356
aI833
asI6
(lp84
I344
aI802
asI7
(lp85
I206
aI828
asI8
(lp86
I192
aI773
asI9
(lp87
I196
aI852
asI10
(lp88
I689
aI2965
assI11
(dp89
I1
(lp90
I107
aI544
asI2
(lp91
I284
aI800
asI3
(lp92
I315
aI809
asI4
(lp93
I338
aI816
asI5
(lp94
I328
aI775
asI6
(lp95
I335
aI808
asI7
(lp96
I241
aI830
asI8
(lp97
I187
aI831
asI9
(lp98
I169
aI812
asI10
(lp99
I679
aI2975
assI12
(dp100
I1
(lp101
I111
aI529
asI2
(lp102
I313
aI824
asI3
(lp103
I279
aI771
asI4
(lp104
I300
aI807
asI5
(lp105
I335
aI863
asI6
(lp106
I354
aI765
asI7
(lp107
I213
aI803
asI8
(lp108
I195
aI815
asI9
(lp109
I196
aI813
asI10
(lp110
I697
aI3010
assI13
(dp111
I1
(lp112
I109
aI537
asI2
(lp113
I280
aI797
asI3
(lp114
I313
aI823
asI4
(lp115
I336
aI844
asI5
(lp116
I349
aI836
asI6
(lp117
I377
aI855
asI7
(lp118
I220
aI780
asI8
(lp119
I183
aI774
asI9
(lp120
I183
aI808
asI10
(lp121
I728
aI2946
assI14
(dp122
I1
(lp123
I125
aI571
asI2
(lp124
I261
aI746
asI3
(lp125
I316
aI839
asI4
(lp126
I331
aI831
asI5
(lp127
I332
aI820
asI6
(lp128
I338
aI798
asI7
(lp129
I235
aI832
asI8
(lp130
I199
aI864
asI9
(lp131
I177
aI763
asI10
(lp132
I662
aI2936
assI15
(dp133
I1
(lp134
I116
aI563
asI2
(lp135
I292
aI839
asI3
(lp136
I310
aI783
asI4
(lp137
I330
aI812
asI5
(lp138
I339
aI801
asI6
(lp139
I318
aI754
asI7
(lp140
I209
aI775
asI8
(lp141
I223
aI825
asI9
(lp142
I172
aI838
asI10
(lp143
I712
aI3010
assI16
(dp144
I1
(lp145
I99
aI549
asI2
(lp146
I290
aI850
asI3
(lp147
I316
aI830
asI4
(lp148
I309
aI824
asI5
(lp149
I334
aI811
asI6
(lp150
I361
aI835
asI7
(lp151
I199
aI813
asI8
(lp152
I182
aI787
asI9
(lp153
I192
aI796
asI10
(lp154
I675
aI2905
assI17
(dp155
I1
(lp156
F156.5
aI582
asI2
(lp157
F363.5
aI811
asI3
(lp158
F352.0
aI805
asI4
(lp159
F368.5
aI807
asI5
(lp160
F380.0
aI798
asI6
(lp161
F421.0
aI843
asI7
(lp162
F382.0
aI845
asI8
(lp163
F227.0
aI746
asI9
(lp164
F220.5
aI815
asI10
(lp165
F808.0
aI2948
assI18
(dp166
I1
(lp167
F212.0
aI569
asI2
(lp168
F442.5
aI820
asI3
(lp169
F465.0
aI835
asI4
(lp170
F470.5
aI786
asI5
(lp171
F485.5
aI801
asI6
(lp172
F462.0
aI790
asI7
(lp173
F531.0
aI740
asI8
(lp174
F436.5
aI804
asI9
(lp175
F332.5
aI860
asI10
(lp176
F1214.5
aI2995
assI19
(dp177
I1
(lp178
F358.5
aI573
asI2
(lp179
F569.0
aI829
asI3
(lp180
F570.5
aI814
asI4
(lp181
F552.0
aI759
asI5
(lp182
F582.0
aI814
asI6
(lp183
F577.5
aI812
asI7
(lp184
F615.0
aI763
asI8
(lp185
F637.0
aI790
asI9
(lp186
F517.0
aI818
asI10
(lp187
F1626.5
aI3028
assI20
(dp188
I1
(lp189
F441.0
aI552
asI2
(lp190
F619.5
aI776
asI3
(lp191
F696.5
aI849
asI4
(lp192
F657.5
aI790
asI5
(lp193
F640.5
aI765
asI6
(lp194
F704.0
aI848
asI7
(lp195
F703.0
aI817
asI8
(lp196
F710.5
aI790
asI9
(lp197
F715.5
aI817
asI10
(lp198
F2310.5
aI2996
assI21
(dp199
I1
(lp200
F548.5
aI570
asI2
(lp201
F772.0
aI826
asI3
(lp202
F780.0
aI832
asI4
(lp203
F748.5
aI796
asI5
(lp204
F748.0
aI797
asI6
(lp205
F735.5
aI775
asI7
(lp206
F803.5
aI834
asI8
(lp207
F754.5
aI777
asI9
(lp208
F767.5
aI795
asI10
(lp209
F2943.0
aI2998
assS'ITERATIONS'
p210
I10000
s.