(dp0
I4
(dp1
I1
(lp2
I56183
aI279326
asI2
(lp3
I144618
aI403583
asI3
(lp4
I152523
aI404184
asI4
(lp5
I161107
aI404004
asI5
(lp6
I169548
aI402768
asI6
(lp7
I176962
aI404299
asI7
(lp8
I104973
aI403391
asI8
(lp9
I98578
aI403834
asI9
(lp10
I92387
aI403131
asI10
(lp11
I344299
aI1491480
assI5
(dp12
I1
(lp13
I55940
aI279252
asI2
(lp14
I144673
aI404129
asI3
(lp15
I152428
aI404253
asI4
(lp16
I161412
aI403563
asI5
(lp17
I169256
aI402860
asI6
(lp18
I177953
aI404040
asI7
(lp19
I105973
aI404121
asI8
(lp20
I98384
aI404098
asI9
(lp21
I92642
aI403487
asI10
(lp22
I343282
aI1490197
assI6
(dp23
I1
(lp24
I56072
aI278373
asI2
(lp25
I143920
aI404056
asI3
(lp26
I151795
aI402844
asI4
(lp27
I161079
aI404546
asI5
(lp28
I168866
aI403544
asI6
(lp29
I176964
aI403183
asI7
(lp30
I106158
aI404086
asI8
(lp31
I98532
aI404206
asI9
(lp32
I91961
aI403671
asI10
(lp33
I343517
aI1491491
assI7
(dp34
I1
(lp35
I56429
aI279662
asI2
(lp36
I144397
aI404655
asI3
(lp37
I152365
aI403362
asI4
(lp38
I160862
aI403684
asI5
(lp39
I169386
aI403964
asI6
(lp40
I176848
aI402706
asI7
(lp41
I105706
aI404438
asI8
(lp42
I98130
aI403373
asI9
(lp43
I92946
aI403746
asI10
(lp44
I342559
aI1490410
assI8
(dp45
I1
(lp46
I56180
aI278912
asI2
(lp47
I143631
aI403849
asI3
(lp48
I151886
aI403302
asI4
(lp49
I161477
aI404661
asI5
(lp50
I169640
aI404224
asI6
(lp51
I177536
aI403860
asI7
(lp52
I105502
aI403199
asI8
(lp53
I98495
aI404970
asI9
(lp54
I92328
aI402228
asI10
(lp55
I342815
aI1490795
assI9
(dp56
I1
(lp57
I56200
aI278708
asI2
(lp58
I143944
aI403888
asI3
(lp59
I152050
aI403368
asI4
(lp60
I160418
aI403710
asI5
(lp61
I169996
aI404317
asI6
(lp62
I176904
aI403815
asI7
(lp63
I105707
aI403833
asI8
(lp64
I99058
aI404176
asI9
(lp65
I92411
aI403623
asI10
(lp66
I343781
aI1490562
assI10
(dp67
I1
(lp68
I56106
aI278754
asI2
(lp69
I143575
aI403120
asI3
(lp70
I152078
aI404471
asI4
(lp71
I161128
aI404566
asI5
(lp72
I169789
aI404713
asI6
(lp73
I177252
aI403073
asI7
(lp74
I105922
aI403195
asI8
(lp75
I98500
aI404170
asI9
(lp76
I92566
aI403002
asI10
(lp77
I343532
aI1490936
assI11
(dp78
I1
(lp79
I56649
aI279911
asI2
(lp80
I143873
aI402932
asI3
(lp81
I151918
aI404063
asI4
(lp82
I160867
aI403804
asI5
(lp83
I169292
aI404186
asI6
(lp84
I177142
aI403501
asI7
(lp85
I105999
aI403768
asI8
(lp86
I97980
aI403123
asI9
(lp87
I93023
aI404788
asI10
(lp88
I341701
aI1489924
assI12
(dp89
I1
(lp90
I56365
aI279640
asI2
(lp91
I144778
aI403657
asI3
(lp92
I152640
aI403647
asI4
(lp93
I160659
aI403722
asI5
(lp94
I169729
aI404492
asI6
(lp95
I177618
aI404298
asI7
(lp96
I105872
aI404138
asI8
(lp97
I98463
aI403806
asI9
(lp98
I92362
aI403193
asI10
(lp99
I343706
aI1489407
assI13
(dp100
I1
(lp101
I56336
aI278710
asI2
(lp102
I143795
aI403828
asI3
(lp103
I152329
aI404415
asI4
(lp104
I161266
aI404290
asI5
(lp105
I169967
aI403741
asI6
(lp106
I177357
aI404081
asI7
(lp107
I105759
aI403517
asI8
(lp108
I98705
aI403940
asI9
(lp109
I92715
aI403566
asI10
(lp110
I342211
aI1489912
assI14
(dp111
I1
(lp112
I56005
aI279099
asI2
(lp113
I143909
aI403318
asI3
(lp114
I151550
aI403269
asI4
(lp115
I161163
aI403757
asI5
(lp116
I169976
aI404615
asI6
(lp117
I177713
aI403825
asI7
(lp118
I106510
aI404122
asI8
(lp119
I98776
aI403976
asI9
(lp120
I92834
aI403744
asI10
(lp121
I343185
aI1490275
assI15
(dp122
I1
(lp123
I55766
aI279022
asI2
(lp124
I143673
aI402885
asI3
(lp125
I152408
aI404509
asI4
(lp126
I161385
aI403907
asI5
(lp127
I169166
aI402780
asI6
(lp128
I177756
aI404083
asI7
(lp129
I105833
aI404992
asI8
(lp130
I98474
aI404643
asI9
(lp131
I93026
aI403954
asI10
(lp132
I343760
aI1489225
assI16
(dp133
I1
(lp134
I56424
aI279340
asI2
(lp135
I143697
aI403808
asI3
(lp136
I152059
aI403849
asI4
(lp137
I160645
aI403496
asI5
(lp138
I169323
aI404096
asI6
(lp139
I177751
aI404211
asI7
(lp140
I105971
aI404165
asI8
(lp141
I98205
aI403880
asI9
(lp142
I92679
aI404271
asI10
(lp143
I343118
aI1488884
assI17
(dp144
I1
(lp145
F67599.0
aI278859
asI2
(lp146
F169894.0
aI403407
asI3
(lp147
F178187.0
aI404405
asI4
(lp148
F185855.5
aI404021
asI5
(lp149
F193672.5
aI404687
asI6
(lp150
F199754.0
aI402930
asI7
(lp151
F180680.0
aI403969
asI8
(lp152
F124539.5
aI404259
asI9
(lp153
F116547.0
aI402925
asI10
(lp154
F434103.0
aI1490538
assI18
(dp155
I1
(lp156
F108517.5
aI279742
asI2
(lp157
F223238.0
aI403258
asI3
(lp158
F229274.5
aI403528
asI4
(lp159
F235165.0
aI403740
asI5
(lp160
F242017.5
aI403607
asI6
(lp161
F247240.5
aI404392
asI7
(lp162
F282434.0
aI403858
asI8
(lp163
F223047.0
aI404114
asI9
(lp164
F164835.5
aI403749
asI10
(lp165
F614114.5
aI1490012
assI19
(dp166
I1
(lp167
F165871.0
aI279473
asI2
(lp168
F277330.5
aI402197
asI3
(lp169
F281875.5
aI403906
asI4
(lp170
F286118.0
aI404146
asI5
(lp171
F291805.0
aI404686
asI6
(lp172
F293441.5
aI403771
asI7
(lp173
F326404.0
aI403603
asI8
(lp174
F321057.5
aI402765
asI9
(lp175
F259437.5
aI404095
asI10
(lp176
F796049.5
aI1491358
assI20
(dp177
I1
(lp178
F223696.5
aI278987
asI2
(lp179
F329975.5
aI404100
asI3
(lp180
F331726.5
aI403094
asI4
(lp181
F334913.0
aI404468
asI5
(lp182
F337753.0
aI403900
asI6
(lp183
F338076.0
aI403274
asI7
(lp184
F357970.5
aI403738
asI8
(lp185
F362136.0
aI404218
asI9
(lp186
F354560.0
aI403587
asI10
(lp187
F1159739.0
aI1490634
assI21
(dp188
I1
(lp189
F265508.5
aI278742
asI2
(lp190
F380354.5
aI404631
asI3
(lp191
F380150.0
aI403726
asI4
(lp192
F381251.5
aI404141
asI5
(lp193
F381465.0
aI403346
asI6
(lp194
F382810.5
aI404216
asI7
(lp195
F387703.0
aI402616
asI8
(lp196
F389436.0
aI403362
asI9
(lp197
F391906.5
aI404197
asI10
(lp198
F1462975.5
aI1491023
assS'ITERATIONS'
p199
I5000000
s.